

Microchip Technology PIC18 LITE Macro Assembler V1.32 build 58300 
                                                                                               Sun Oct 12 10:06:57 2014

Microchip Technology Omniscient Code Generator (Lite mode) build 58300
     1                           	processor	18F45K22
     2                           	fnconf	param0,??,?,0
     3                           	opt	pw 120
     4                           	opt	lm
     5                           	psect	text0,global,reloc=2,class=CODE,delta=1
     6                           	psect	cinit,global,reloc=2,class=CODE,delta=1
     7                           	psect	bssCOMRAM,global,class=COMRAM,space=1,delta=1
     8                           	psect	bssBANK0,global,class=BANK0,space=1,delta=1
     9                           	psect	bssBANK1,global,class=BANK1,space=1,delta=1
    10                           	psect	cstackBANK0,global,class=BANK0,space=1,delta=1
    11                           	psect	cstackCOMRAM,global,class=COMRAM,space=1,delta=1
    12                           	psect	text1,global,reloc=2,class=CODE,delta=1
    13                           	psect	text2,global,reloc=2,class=CODE,delta=1
    14                           	psect	text3,global,reloc=2,class=CODE,delta=1
    15                           	psect	text4,global,reloc=2,class=CODE,delta=1
    16                           	psect	text5,global,reloc=2,class=CODE,delta=1
    17                           	psect	text6,global,reloc=2,class=CODE,delta=1
    18                           	psect	text7,global,reloc=2,class=CODE,delta=1
    19                           	psect	text8,global,reloc=2,class=CODE,delta=1
    20                           	psect	text9,global,reloc=2,class=CODE,delta=1
    21                           	psect	text10,global,reloc=2,class=CODE,delta=1
    22                           	psect	text11,global,reloc=2,class=CODE,delta=1
    23                           	psect	text12,global,reloc=2,class=CODE,delta=1
    24                           	psect	text13,global,reloc=2,class=CODE,delta=1
    25                           	psect	text14,global,reloc=2,class=CODE,delta=1
    26                           	psect	text15,global,reloc=2,class=CODE,delta=1
    27                           	psect	text16,global,reloc=2,class=CODE,delta=1
    28                           	psect	text17,global,reloc=2,class=CODE,delta=1
    29                           	psect	text18,global,reloc=2,class=CODE,delta=1
    30                           	psect	text19,global,reloc=2,class=CODE,delta=1
    31                           	psect	text20,global,reloc=2,class=CODE,delta=1
    32                           	psect	text21,global,reloc=2,class=CODE,delta=1
    33                           	psect	text22,global,reloc=2,class=CODE,delta=1
    34                           	psect	text23,global,reloc=2,class=CODE,delta=1
    35                           	psect	text24,global,reloc=2,class=CODE,delta=1
    36                           	psect	text25,global,reloc=2,class=CODE,delta=1
    37                           	psect	text26,global,reloc=2,class=CODE,delta=1
    38                           	psect	text27,global,reloc=2,class=CODE,delta=1
    39                           	psect	text28,global,reloc=2,class=CODE,delta=1
    40                           	psect	text29,global,reloc=2,class=CODE,delta=1
    41                           	psect	text30,global,reloc=2,class=CODE,delta=1
    42                           	psect	intcodelo,global,reloc=2,class=CODE,delta=1
    43                           	psect	text32,global,reloc=2,class=CODE,delta=1
    44                           	psect	text33,global,reloc=2,class=CODE,delta=1
    45                           	psect	text34,global,reloc=2,class=CODE,delta=1
    46                           	psect	text35,global,reloc=2,class=CODE,delta=1
    47                           	psect	text36,global,reloc=2,class=CODE,delta=1
    48                           	psect	text37,global,reloc=2,class=CODE,delta=1
    49                           	psect	text38,global,reloc=2,class=CODE,delta=1
    50                           	psect	text39,global,reloc=2,class=CODE,delta=1
    51                           	psect	text40,global,reloc=2,class=CODE,delta=1
    52                           	psect	intcode,global,reloc=2,class=CODE,delta=1
    53                           	psect	intcode_body,global,reloc=2,class=CODE,delta=1
    54                           	psect	text42,global,reloc=2,class=CODE,delta=1
    55                           	psect	text43,global,reloc=2,class=CODE,delta=1
    56                           	psect	intsave_regs,global,class=BIGRAM,space=1,delta=1
    57                           	psect	param0,global,class=BANK0,space=1,delta=1
    58  0000                     _ANSELB	set	3897
    59  0000                     _BAUDCONbits	set	4024
    60  0000                     _CM1CON0	set	3961
    61  0000                     _CM2CON0	set	3960
    62  0000                     _INTCON2bits	set	4081
    63  0000                     _INTCONbits	set	4082
    64  0000                     _IPR1bits	set	3999
    65  0000                     _IPR2bits	set	4002
    66  0000                     _IPR3bits	set	4005
    67  0000                     _LATA	set	3977
    68  0000                     _LATB	set	3978
    69  0000                     _LATC	set	3979
    70  0000                     _LATCbits	set	3979
    71  0000                     _OSCCON	set	4051
    72  0000                     _OSCCONbits	set	4051
    73  0000                     _PIE1bits	set	3997
    74  0000                     _PIE2bits	set	4000
    75  0000                     _PIE3bits	set	4003
    76  0000                     _PIR1bits	set	3998
    77  0000                     _PIR2bits	set	4001
    78  0000                     _PIR3bits	set	4004
    79  0000                     _PORTA	set	3968
    80  0000                     _PORTB	set	3969
    81  0000                     _PORTC	set	3970
    82  0000                     _RCONbits	set	4048
    83  0000                     _RCREG	set	4014
    84  0000                     _RCSTA2	set	3953
    85  0000                     _RCSTA2bits	set	3953
    86  0000                     _SPBRG1	set	4015
    87  0000                     _SPBRG2	set	3957
    88  0000                     _SPBRGH	set	4016
    89  0000                     _SSP1BUF	set	4041
    90  0000                     _SSP1CON1	set	4038
    91  0000                     _SSP1CON1bits	set	4038
    92  0000                     _SSP1CON2	set	4037
    93  0000                     _SSP1CON2bits	set	4037
    94  0000                     _SSP1STAT	set	4039
    95  0000                     _SSP1STATbits	set	4039
    96  0000                     _SSPADD	set	4040
    97  0000                     _SSPCON2bits	set	4037
    98  0000                     _T0CONbits	set	4053
    99  0000                     _T1CON	set	4045
   100  0000                     _T1CONbits	set	4045
   101  0000                     _T3CON	set	4017
   102  0000                     _T3CONbits	set	4017
   103  0000                     _TMR0H	set	4055
   104  0000                     _TMR0L	set	4054
   105  0000                     _TMR1L	set	4046
   106  0000                     _TMR3H	set	4019
   107  0000                     _TMR3L	set	4018
   108  0000                     _TRISA	set	3986
   109  0000                     _TRISB	set	3987
   110  0000                     _TRISBbits	set	3987
   111  0000                     _TRISC	set	3988
   112  0000                     _TRISCbits	set	3988
   113  0000                     _TRISD	set	3989
   114  0000                     _TRISDbits	set	3989
   115  0000                     _TXREG	set	4013
   116                           
   117 ;;
   118 ;;Main: autosize = 0, tempsize = 0, incstack = 0, save=0
   119 ;;
   120 ;; *************** function _main *****************
   121 ;; Defined at:
   122 ;;		line 51 in file "main.c"
   123 ;; Parameters:    Size  Location     Type
   124 ;;		None
   125 ;; Auto vars:     Size  Location     Type
   126 ;;		None
   127 ;; Return value:  Size  Location     Type
   128 ;;		None               void
   129 ;; Registers used:
   130 ;;		wreg, fsr2l, fsr2h, status,2, status,0, prodl, prodh, cstack
   131 ;; Tracked objects:
   132 ;;		On entry : 0/0
   133 ;;		On exit  : 0/0
   134 ;;		Unchanged: 0/0
   135 ;; Data sizes:     COMRAM   BANK0   BANK1   BANK2   BANK3   BANK4   BANK5
   136 ;;      Params:         0       0       0       0       0       0       0
   137 ;;      Locals:         0       0       0       0       0       0       0
   138 ;;      Temps:          0       0       0       0       0       0       0
   139 ;;      Totals:         0       0       0       0       0       0       0
   140 ;;Total ram usage:        0 bytes
   141 ;; Hardware stack levels required when called:   13
   142 ;; This function calls:
   143 ;;		_buttonByteReceived
   144 ;;		_doDimStart
   145 ;;		_fifoEmpty
   146 ;;		_fifoGet
   147 ;;		_initAllButtons
   148 ;;		_initButtonHardware
   149 ;;		_initButtonProtocol
   150 ;;		_initDMXSend
   151 ;;		_initFlashButtonMatrix
   152 ;;		_initHardware
   153 ;;		_initI2C
   154 ;;		_initSceneChangeHardware
   155 ;;		_readTestPattern
   156 ;;		_storeSomeScenes
   157 ;; This function is called by:
   158 ;;		Startup code after reset
   159 ;; This function uses a non-reentrant model
   160 ;;
   161                           
   162                           	psect	text0
   163  000F0E                     __ptext0:
   164                           	opt stack 0
   165  000F0E                     _main:
   166                           	opt stack 17
   167                           
   168                           ;main.c: 53: initHardware();
   169                           
   170                           ;incstack = 0
   171  000F0E  ECD5  F007         	call	_initHardware	;wreg free
   172                           
   173                           ;main.c: 54: initI2C();
   174  000F12  EC7D  F009         	call	_initI2C	;wreg free
   175                           
   176                           ;main.c: 61: initFlashButtonMatrix();
   177  000F16  EC77  F001         	call	_initFlashButtonMatrix	;wreg free
   178                           
   179                           ;main.c: 62: storeSomeScenes();
   180  000F1A  EC61  F000         	call	_storeSomeScenes	;wreg free
   181                           
   182                           ;main.c: 64: readTestPattern(0);
   183  000F1E  0E00               	movlw	0
   184  000F20  EC5E  F007         	call	_readTestPattern
   185                           
   186                           ;main.c: 65: readTestPattern(1);
   187  000F24  0E01               	movlw	1
   188  000F26  EC5E  F007         	call	_readTestPattern
   189                           
   190                           ;main.c: 67: initButtonProtocol();
   191  000F2A  EC95  F009         	call	_initButtonProtocol	;wreg free
   192                           
   193                           ;main.c: 68: initButtonHardware();
   194  000F2E  EC89  F008         	call	_initButtonHardware	;wreg free
   195                           
   196                           ;main.c: 70: initAllButtons();
   197  000F32  ECF9  F007         	call	_initAllButtons	;wreg free
   198                           
   199                           ;main.c: 77: initSceneChangeHardware();
   200  000F36  EC86  F009         	call	_initSceneChangeHardware	;wreg free
   201                           
   202                           ;main.c: 80: initDMXSend();
   203  000F3A  EC3F  F009         	call	_initDMXSend	;wreg free
   204                           
   205                           ;main.c: 83: RCONbits.IPEN = 1;
   206  000F3E  8ED0               	bsf	4048,7,c	;volatile
   207                           
   208                           ;main.c: 86: INTCONbits.GIEH = 1;
   209  000F40  8EF2               	bsf	intcon,7,c	;volatile
   210                           
   211                           ;main.c: 87: INTCONbits.GIEL = 1;
   212  000F42  8CF2               	bsf	intcon,6,c	;volatile
   213                           
   214                           ;main.c: 91: doDimStart(1);
   215  000F44  0E01               	movlw	1
   216  000F46  EC8E  F009         	call	_doDimStart
   217  000F4A                     l3068:
   218                           
   219                           ;main.c: 95: if (!fifoEmpty()) {
   220  000F4A  EC61  F009         	call	_fifoEmpty	;wreg free
   221  000F4E  0900               	iorlw	0
   222  000F50  A4D8               	btfss	status,2,c
   223  000F52  D7FB               	goto	l3068
   224                           
   225                           ;main.c: 96: buttonByteReceived(fifoGet());
   226  000F54  ECA4  F008         	call	_fifoGet	;wreg free
   227  000F58  ECA0  F005         	call	_buttonByteReceived
   228  000F5C  D7F6               	goto	l3068
   229  000F5E                     __end_of_main:
   230                           	opt stack 0
   231                           intcon	equ	0xFF2
   232                           status	equ	0xFD8
   233                           
   234                           	psect	cinit
   235  0010A6                     __pcinit:
   236                           	opt stack 0
   237  0010A6                     start_initialization:
   238                           	opt stack 0
   239  0010A6                     __initialization:
   240                           	opt stack 0
   241                           
   242                           ; Clear objects allocated to BANK1 (256 bytes)
   243  0010A6  EE01  F000         	lfsr	0,__pbssBANK1
   244  0010AA  EE11 F000          	lfsr	1,256
   245  0010AE                     clear_0:
   246  0010AE  6AEE               	clrf	postinc0,c
   247  0010B0  50E5               	movf	postdec1,w,c
   248  0010B2  50E1               	movf	fsr1l,w,c
   249  0010B4  E1FC               	bnz	clear_0
   250  0010B6  50E2               	movf	fsr1h,w,c
   251  0010B8  E1FA               	bnz	clear_0
   252                           
   253                           ; Clear objects allocated to BANK0 (67 bytes)
   254  0010BA  EE00  F060         	lfsr	0,__pbssBANK0
   255  0010BE  0E43               	movlw	67
   256  0010C0                     clear_1:
   257  0010C0  6AEE               	clrf	postinc0,c
   258  0010C2  06E8               	decf	wreg,f,c
   259  0010C4  E1FD               	bnz	clear_1
   260                           
   261                           ; Clear objects allocated to COMRAM (23 bytes)
   262  0010C6  EE00  F02B         	lfsr	0,__pbssCOMRAM
   263  0010CA  0E17               	movlw	23
   264  0010CC                     clear_2:
   265  0010CC  6AEE               	clrf	postinc0,c
   266  0010CE  06E8               	decf	wreg,f,c
   267  0010D0  E1FD               	bnz	clear_2
   268  0010D2                     end_of_initialization:
   269                           	opt stack 0
   270  0010D2                     __end_of__initialization:
   271                           	opt stack 0
   272  0010D2  0E00               	movlw	low (__Lmediumconst shr (0+16))
   273  0010D4  6EF8               	movwf	tblptru,c
   274  0010D6  0100               	movlb	0
   275  0010D8  EF87  F007         	goto	_main	;jump to C main() function
   276                           tblptru	equ	0xFF8
   277                           intcon	equ	0xFF2
   278                           postinc0	equ	0xFEE
   279                           wreg	equ	0xFE8
   280                           postdec1	equ	0xFE5
   281                           fsr1h	equ	0xFE2
   282                           fsr1l	equ	0xFE1
   283                           status	equ	0xFD8
   284                           
   285                           	psect	bssCOMRAM
   286  00002B                     __pbssCOMRAM:
   287                           	opt stack 0
   288  00002B                     _fifo:
   289                           	opt stack 0
   290  00002B                     	ds	16
   291  00003B                     _dataCounter:
   292                           	opt stack 0
   293  00003B                     	ds	2
   294  00003D                     _dimmingInProgress:
   295                           	opt stack 0
   296  00003D                     	ds	1
   297  00003E                     _dmxSendState:
   298                           	opt stack 0
   299  00003E                     	ds	1
   300  00003F                     _fifoIn:
   301                           	opt stack 0
   302  00003F                     	ds	1
   303  000040                     _fifoOut:
   304                           	opt stack 0
   305  000040                     	ds	1
   306  000041                     _targetScene:
   307                           	opt stack 0
   308  000041                     	ds	1
   309                           tblptru	equ	0xFF8
   310                           intcon	equ	0xFF2
   311                           postinc0	equ	0xFEE
   312                           wreg	equ	0xFE8
   313                           postdec1	equ	0xFE5
   314                           fsr1h	equ	0xFE2
   315                           fsr1l	equ	0xFE1
   316                           status	equ	0xFD8
   317                           
   318                           	psect	bssBANK0
   319  000060                     __pbssBANK0:
   320                           	opt stack 0
   321  000060                     _channelLevel:
   322                           	opt stack 0
   323  000060                     	ds	64
   324  0000A0                     _button:
   325                           	opt stack 0
   326  0000A0                     	ds	1
   327  0000A1                     _device:
   328                           	opt stack 0
   329  0000A1                     	ds	1
   330  0000A2                     _protocolState:
   331                           	opt stack 0
   332  0000A2                     	ds	1
   333                           tblptru	equ	0xFF8
   334                           intcon	equ	0xFF2
   335                           postinc0	equ	0xFEE
   336                           wreg	equ	0xFE8
   337                           postdec1	equ	0xFE5
   338                           fsr1h	equ	0xFE2
   339                           fsr1l	equ	0xFE1
   340                           status	equ	0xFD8
   341                           
   342                           	psect	bssBANK1
   343  000100                     __pbssBANK1:
   344                           	opt stack 0
   345  000100                     _buttons:
   346                           	opt stack 0
   347  000100                     	ds	256
   348                           tblptru	equ	0xFF8
   349                           intcon	equ	0xFF2
   350                           postinc0	equ	0xFEE
   351                           wreg	equ	0xFE8
   352                           postdec1	equ	0xFE5
   353                           fsr1h	equ	0xFE2
   354                           fsr1l	equ	0xFE1
   355                           status	equ	0xFD8
   356                           
   357                           	psect	cstackBANK0
   358  0000A3                     __pcstackBANK0:
   359                           	opt stack 0
   360  0000A3                     ??_fifoPut:
   361  0000A3                     buttonsReset@i:
   362                           	opt stack 0
   363                           
   364                           ; 1 bytes @ 0x0
   365  0000A3                     	ds	1
   366  0000A4                     buttonsReset@bp:
   367                           	opt stack 0
   368                           
   369                           ; 2 bytes @ 0x1
   370  0000A4                     	ds	1
   371  0000A5                     fifoPut@in:
   372                           	opt stack 0
   373                           
   374                           ; 1 bytes @ 0x2
   375  0000A5                     	ds	1
   376  0000A6                     ??_high_isr:
   377                           
   378                           ; 0 bytes @ 0x3
   379  0000A6                     	ds	14
   380  0000B4                     high_isr@data:
   381                           	opt stack 0
   382                           
   383                           ; 1 bytes @ 0x11
   384  0000B4                     	ds	1
   385  0000B5                     ??_fifoEmpty:
   386  0000B5                     ??_fifoGet:
   387  0000B5                     ??_WriteI2C1:
   388  0000B5                     ??_ReadI2C1:
   389  0000B5                     ?_findButton:
   390                           	opt stack 0
   391  0000B5                     ?___wmul:
   392                           	opt stack 0
   393  0000B5                     initButton@bn:
   394                           	opt stack 0
   395  0000B5                     doDimStart@program:
   396                           	opt stack 0
   397  0000B5                     OpenI2C1@slew:
   398                           	opt stack 0
   399  0000B5                     buttonReceived@bp:
   400                           	opt stack 0
   401  0000B5                     ___wmul@multiplier:
   402                           	opt stack 0
   403                           
   404                           ; 2 bytes @ 0x12
   405  0000B5                     	ds	1
   406  0000B6                     initButton@bf:
   407                           	opt stack 0
   408  0000B6                     OpenI2C1@sync_mode:
   409                           	opt stack 0
   410  0000B6                     WriteI2C1@data_out:
   411                           	opt stack 0
   412  0000B6                     getsI2C1@rdptr:
   413                           	opt stack 0
   414                           
   415                           ; 2 bytes @ 0x13
   416  0000B6                     	ds	1
   417  0000B7                     ??_EEAckPolling1:
   418  0000B7                     findButton@code:
   419                           	opt stack 0
   420  0000B7                     initButton@i:
   421                           	opt stack 0
   422  0000B7                     fifoGet@v:
   423                           	opt stack 0
   424  0000B7                     ___wmul@multiplicand:
   425                           	opt stack 0
   426                           
   427                           ; 2 bytes @ 0x14
   428  0000B7                     	ds	1
   429  0000B8                     findButton@i:
   430                           	opt stack 0
   431  0000B8                     EEAckPolling1@control:
   432                           	opt stack 0
   433  0000B8                     getsI2C1@length:
   434                           	opt stack 0
   435  0000B8                     initButton@bp:
   436                           	opt stack 0
   437                           
   438                           ; 2 bytes @ 0x15
   439  0000B8                     	ds	1
   440  0000B9                     ??_getsI2C1:
   441  0000B9                     decodeButton@code:
   442                           	opt stack 0
   443  0000B9                     HDByteWriteI2C@HighAdd:
   444                           	opt stack 0
   445  0000B9                     ___wmul@product:
   446                           	opt stack 0
   447                           
   448                           ; 2 bytes @ 0x16
   449  0000B9                     	ds	1
   450  0000BA                     HDByteWriteI2C@LowAdd:
   451                           	opt stack 0
   452  0000BA                     HDByteReadI2C@HighAdd:
   453                           	opt stack 0
   454  0000BA                     decodeButton@bp:
   455                           	opt stack 0
   456                           
   457                           ; 2 bytes @ 0x17
   458  0000BA                     	ds	1
   459  0000BB                     ?_sceneAdress:
   460                           	opt stack 0
   461  0000BB                     sceneAdress@channel:
   462                           	opt stack 0
   463  0000BB                     HDByteWriteI2C@data:
   464                           	opt stack 0
   465  0000BB                     HDByteReadI2C@LowAdd:
   466                           	opt stack 0
   467                           
   468                           ; 1 bytes @ 0x18
   469  0000BB                     	ds	1
   470  0000BC                     ??_buttonByteReceived:
   471  0000BC                     ??_HDByteWriteI2C:
   472  0000BC                     HDByteReadI2C@data:
   473                           	opt stack 0
   474                           
   475                           ; 2 bytes @ 0x19
   476  0000BC                     	ds	1
   477  0000BD                     sceneAdress@scene:
   478                           	opt stack 0
   479  0000BD                     HDByteWriteI2C@ControlByte:
   480                           	opt stack 0
   481  0000BD                     buttonByteReceived@checksum:
   482                           	opt stack 0
   483                           
   484                           ; 1 bytes @ 0x1A
   485  0000BD                     	ds	1
   486  0000BE                     storeAButton@program:
   487                           	opt stack 0
   488  0000BE                     HDByteReadI2C@length:
   489                           	opt stack 0
   490  0000BE                     buttonByteReceived@code:
   491                           	opt stack 0
   492  0000BE                     sceneAdress@baseAdress:
   493                           	opt stack 0
   494                           
   495                           ; 2 bytes @ 0x1B
   496  0000BE                     	ds	1
   497  0000BF                     ??_HDByteReadI2C:
   498  0000BF                     storeAButton@button:
   499                           	opt stack 0
   500  0000BF                     buttonByteReceived@b:
   501                           	opt stack 0
   502                           
   503                           ; 1 bytes @ 0x1C
   504  0000BF                     	ds	1
   505  0000C0                     initFlashButtonMatrix@i:
   506                           	opt stack 0
   507  0000C0                     storeASceneChannel@channel:
   508                           	opt stack 0
   509  0000C0                     HDByteReadI2C@ControlByte:
   510                           	opt stack 0
   511                           
   512                           ; 1 bytes @ 0x1D
   513  0000C0                     	ds	1
   514  0000C1                     readAButton@button:
   515                           	opt stack 0
   516  0000C1                     storeASceneChannel@scp:
   517                           	opt stack 0
   518  0000C1                     readTestPattern@r:
   519                           	opt stack 0
   520                           
   521                           ; 32 bytes @ 0x1E
   522  0000C1                     	ds	1
   523  0000C2                     readAButton@program:
   524                           	opt stack 0
   525                           
   526                           ; 1 bytes @ 0x1F
   527  0000C2                     	ds	1
   528  0000C3                     ??_storeASceneChannel:
   529  0000C3                     initAllButtons@buttonIndex:
   530                           	opt stack 0
   531                           
   532                           ; 1 bytes @ 0x20
   533  0000C3                     	ds	1
   534  0000C4                     initAllButtons@buttonProgram:
   535                           	opt stack 0
   536                           
   537                           ; 1 bytes @ 0x21
   538  0000C4                     	ds	1
   539  0000C5                     initAllButtons@i:
   540                           	opt stack 0
   541                           
   542                           ; 1 bytes @ 0x22
   543  0000C5                     	ds	1
   544  0000C6                     storeASceneChannel@scene:
   545                           	opt stack 0
   546                           
   547                           ; 1 bytes @ 0x23
   548  0000C6                     	ds	1
   549  0000C7                     storeASceneChannel@baseAdress:
   550                           	opt stack 0
   551                           
   552                           ; 2 bytes @ 0x24
   553  0000C7                     	ds	2
   554  0000C9                     storeSomeScenes@sc:
   555                           	opt stack 0
   556                           
   557                           ; 3 bytes @ 0x26
   558  0000C9                     	ds	24
   559  0000E1                     readTestPattern@bank:
   560                           	opt stack 0
   561                           
   562                           ; 1 bytes @ 0x3E
   563  0000E1                     	ds	1
   564  0000E2                     tblptru	equ	0xFF8
   565                           intcon	equ	0xFF2
   566                           postinc0	equ	0xFEE
   567                           wreg	equ	0xFE8
   568                           postdec1	equ	0xFE5
   569                           fsr1h	equ	0xFE2
   570                           fsr1l	equ	0xFE1
   571                           status	equ	0xFD8
   572                           
   573                           ; 0 bytes @ 0x3F
   574                           
   575                           	psect	cstackCOMRAM
   576  000001                     __pcstackCOMRAM:
   577                           	opt stack 0
   578  000001                     ??_sendDMX:
   579  000001                     ??i1_ReadI2C1:
   580  000001                     ??i1_WriteI2C1:
   581  000001                     ?i1___wmul:
   582                           	opt stack 0
   583  000001                     i1___wmul@multiplier:
   584                           	opt stack 0
   585                           
   586                           ; 2 bytes @ 0x0
   587  000001                     	ds	1
   588  000002                     i1WriteI2C1@data_out:
   589                           	opt stack 0
   590  000002                     _sendDMX$997:
   591                           	opt stack 0
   592  000002                     i1getsI2C1@rdptr:
   593                           	opt stack 0
   594                           
   595                           ; 2 bytes @ 0x1
   596  000002                     	ds	1
   597  000003                     i1___wmul@multiplicand:
   598                           	opt stack 0
   599                           
   600                           ; 2 bytes @ 0x2
   601  000003                     	ds	1
   602  000004                     i1getsI2C1@length:
   603                           	opt stack 0
   604                           
   605                           ; 1 bytes @ 0x3
   606  000004                     	ds	1
   607  000005                     ??i1_getsI2C1:
   608  000005                     i1___wmul@product:
   609                           	opt stack 0
   610                           
   611                           ; 2 bytes @ 0x4
   612  000005                     	ds	1
   613  000006                     i1HDByteReadI2C@HighAdd:
   614                           	opt stack 0
   615                           
   616                           ; 1 bytes @ 0x5
   617  000006                     	ds	1
   618  000007                     ?i1_sceneAdress:
   619                           	opt stack 0
   620  000007                     i1sceneAdress@channel:
   621                           	opt stack 0
   622  000007                     i1HDByteReadI2C@LowAdd:
   623                           	opt stack 0
   624                           
   625                           ; 1 bytes @ 0x6
   626  000007                     	ds	1
   627  000008                     i1HDByteReadI2C@data:
   628                           	opt stack 0
   629                           
   630                           ; 2 bytes @ 0x7
   631  000008                     	ds	1
   632  000009                     i1sceneAdress@scene:
   633                           	opt stack 0
   634                           
   635                           ; 1 bytes @ 0x8
   636  000009                     	ds	1
   637  00000A                     i1HDByteReadI2C@length:
   638                           	opt stack 0
   639  00000A                     i1sceneAdress@baseAdress:
   640                           	opt stack 0
   641                           
   642                           ; 2 bytes @ 0x9
   643  00000A                     	ds	1
   644  00000B                     ??i1_HDByteReadI2C:
   645                           
   646                           ; 0 bytes @ 0xA
   647  00000B                     	ds	1
   648  00000C                     i1HDByteReadI2C@ControlByte:
   649                           	opt stack 0
   650                           
   651                           ; 1 bytes @ 0xB
   652  00000C                     	ds	1
   653  00000D                     readSceneChannel@channel:
   654                           	opt stack 0
   655                           
   656                           ; 1 bytes @ 0xC
   657  00000D                     	ds	1
   658  00000E                     readSceneChannel@scp:
   659                           	opt stack 0
   660                           
   661                           ; 2 bytes @ 0xD
   662  00000E                     	ds	2
   663  000010                     ??_readSceneChannel:
   664                           
   665                           ; 0 bytes @ 0xF
   666  000010                     	ds	3
   667  000013                     readSceneChannel@scene:
   668                           	opt stack 0
   669                           
   670                           ; 1 bytes @ 0x12
   671  000013                     	ds	1
   672  000014                     readSceneChannel@baseAdress:
   673                           	opt stack 0
   674                           
   675                           ; 2 bytes @ 0x13
   676  000014                     	ds	2
   677  000016                     doDimStep@sc:
   678                           	opt stack 0
   679                           
   680                           ; 3 bytes @ 0x15
   681  000016                     	ds	3
   682  000019                     doDimStep@i:
   683                           	opt stack 0
   684                           
   685                           ; 1 bytes @ 0x18
   686  000019                     	ds	1
   687  00001A                     ??_low_isr:
   688                           
   689                           ; 0 bytes @ 0x19
   690  00001A                     	ds	17
   691                           tblptru	equ	0xFF8
   692                           intcon	equ	0xFF2
   693                           postinc0	equ	0xFEE
   694                           wreg	equ	0xFE8
   695                           postdec1	equ	0xFE5
   696                           fsr1h	equ	0xFE2
   697                           fsr1l	equ	0xFE1
   698                           status	equ	0xFD8
   699                           
   700 ;; *************** function _storeSomeScenes *****************
   701 ;; Defined at:
   702 ;;		line 132 in file "scenes.c"
   703 ;; Parameters:    Size  Location     Type
   704 ;;		None
   705 ;; Auto vars:     Size  Location     Type
   706 ;;  sc              3   38[BANK0 ] struct _scenechannel
   707 ;;  i               1    0        unsigned char 
   708 ;; Return value:  Size  Location     Type
   709 ;;		None               void
   710 ;; Registers used:
   711 ;;		wreg, fsr2l, fsr2h, status,2, status,0, prodl, prodh, cstack
   712 ;; Tracked objects:
   713 ;;		On entry : 0/0
   714 ;;		On exit  : 0/0
   715 ;;		Unchanged: 0/0
   716 ;; Data sizes:     COMRAM   BANK0   BANK1   BANK2   BANK3   BANK4   BANK5
   717 ;;      Params:         0       0       0       0       0       0       0
   718 ;;      Locals:         0       3       0       0       0       0       0
   719 ;;      Temps:          0       0       0       0       0       0       0
   720 ;;      Totals:         0       3       0       0       0       0       0
   721 ;;Total ram usage:        3 bytes
   722 ;; Hardware stack levels used:    1
   723 ;; Hardware stack levels required when called:   12
   724 ;; This function calls:
   725 ;;		_storeASceneChannel
   726 ;; This function is called by:
   727 ;;		_main
   728 ;; This function uses a non-reentrant model
   729 ;;
   730                           
   731                           	psect	text1
   732  0000C2                     __ptext1:
   733                           	opt stack 0
   734  0000C2                     _storeSomeScenes:
   735                           	opt stack 17
   736                           
   737                           ;scenes.c: 134: SCENECHANNEL sc;
   738                           ;scenes.c: 135: unsigned char i;
   739                           ;scenes.c: 137: sc.isTransparent = 0;
   740                           
   741                           ;incstack = 0
   742  0000C2  0E00               	movlw	0
   743  0000C4  0100               	movlb	0	; () banked
   744  0000C6  6FCA               	movwf	(storeSomeScenes@sc+1)& (0+255),b
   745                           
   746                           ;scenes.c: 138: sc.dimSpeed = 0x5A;
   747  0000C8  0E5A               	movlw	90
   748  0000CA  0100               	movlb	0	; () banked
   749  0000CC  6FCB               	movwf	(storeSomeScenes@sc+2)& (0+255),b
   750                           
   751                           ;scenes.c: 142: sc.level = 0x33; storeASceneChannel(1,0,&sc);
   752  0000CE  0E33               	movlw	51
   753  0000D0  0100               	movlb	0	; () banked
   754  0000D2  6FC9               	movwf	storeSomeScenes@sc& (0+255),b
   755                           
   756                           ; BSR set to: 0
   757  0000D4  0E00               	movlw	0
   758  0000D6  0100               	movlb	0	; () banked
   759  0000D8  6FC0               	movwf	storeASceneChannel@channel& (0+255),b
   760  0000DA  0100               	movlb	0	; () banked
   761  0000DC  0E00               	movlw	high storeSomeScenes@sc
   762  0000DE  0100               	movlb	0	; () banked
   763  0000E0  6FC2               	movwf	(storeASceneChannel@scp+1)& (0+255),b
   764  0000E2  0100               	movlb	0	; () banked
   765  0000E4  0EC9               	movlw	low storeSomeScenes@sc
   766  0000E6  0100               	movlb	0	; () banked
   767  0000E8  6FC1               	movwf	storeASceneChannel@scp& (0+255),b
   768  0000EA  0E01               	movlw	1
   769  0000EC  ECAE  F003         	call	_storeASceneChannel
   770                           
   771                           ;scenes.c: 143: sc.level = 0x66; storeASceneChannel(1,1,&sc);
   772  0000F0  0E66               	movlw	102
   773  0000F2  0100               	movlb	0	; () banked
   774  0000F4  6FC9               	movwf	storeSomeScenes@sc& (0+255),b
   775  0000F6  0E01               	movlw	1
   776  0000F8  0100               	movlb	0	; () banked
   777  0000FA  6FC0               	movwf	storeASceneChannel@channel& (0+255),b
   778  0000FC  0100               	movlb	0	; () banked
   779  0000FE  0E00               	movlw	high storeSomeScenes@sc
   780  000100  0100               	movlb	0	; () banked
   781  000102  6FC2               	movwf	(storeASceneChannel@scp+1)& (0+255),b
   782  000104  0100               	movlb	0	; () banked
   783  000106  0EC9               	movlw	low storeSomeScenes@sc
   784  000108  0100               	movlb	0	; () banked
   785  00010A  6FC1               	movwf	storeASceneChannel@scp& (0+255),b
   786  00010C  0E01               	movlw	1
   787  00010E  ECAE  F003         	call	_storeASceneChannel
   788                           
   789                           ;scenes.c: 144: sc.level = 0x99; storeASceneChannel(1,2,&sc);
   790  000112  0E99               	movlw	153
   791  000114  0100               	movlb	0	; () banked
   792  000116  6FC9               	movwf	storeSomeScenes@sc& (0+255),b
   793                           
   794                           ; BSR set to: 0
   795  000118  0E02               	movlw	2
   796  00011A  0100               	movlb	0	; () banked
   797  00011C  6FC0               	movwf	storeASceneChannel@channel& (0+255),b
   798  00011E  0100               	movlb	0	; () banked
   799  000120  0E00               	movlw	high storeSomeScenes@sc
   800  000122  0100               	movlb	0	; () banked
   801  000124  6FC2               	movwf	(storeASceneChannel@scp+1)& (0+255),b
   802  000126  0100               	movlb	0	; () banked
   803  000128  0EC9               	movlw	low storeSomeScenes@sc
   804  00012A  0100               	movlb	0	; () banked
   805  00012C  6FC1               	movwf	storeASceneChannel@scp& (0+255),b
   806  00012E  0E01               	movlw	1
   807  000130  ECAE  F003         	call	_storeASceneChannel
   808                           
   809                           ;scenes.c: 145: sc.level = 0xBB; storeASceneChannel(1,3,&sc);
   810  000134  0EBB               	movlw	187
   811  000136  0100               	movlb	0	; () banked
   812  000138  6FC9               	movwf	storeSomeScenes@sc& (0+255),b
   813                           
   814                           ; BSR set to: 0
   815  00013A  0E03               	movlw	3
   816  00013C  0100               	movlb	0	; () banked
   817  00013E  6FC0               	movwf	storeASceneChannel@channel& (0+255),b
   818  000140  0100               	movlb	0	; () banked
   819  000142  0E00               	movlw	high storeSomeScenes@sc
   820  000144  0100               	movlb	0	; () banked
   821  000146  6FC2               	movwf	(storeASceneChannel@scp+1)& (0+255),b
   822  000148  0100               	movlb	0	; () banked
   823  00014A  0EC9               	movlw	low storeSomeScenes@sc
   824  00014C  0100               	movlb	0	; () banked
   825  00014E  6FC1               	movwf	storeASceneChannel@scp& (0+255),b
   826  000150  0E01               	movlw	1
   827  000152  ECAE  F003         	call	_storeASceneChannel
   828                           
   829                           ;scenes.c: 146: sc.level = 0xDD; storeASceneChannel(1,4,&sc);
   830  000156  0EDD               	movlw	221
   831  000158  0100               	movlb	0	; () banked
   832  00015A  6FC9               	movwf	storeSomeScenes@sc& (0+255),b
   833  00015C  0E04               	movlw	4
   834  00015E  0100               	movlb	0	; () banked
   835  000160  6FC0               	movwf	storeASceneChannel@channel& (0+255),b
   836  000162  0100               	movlb	0	; () banked
   837  000164  0E00               	movlw	high storeSomeScenes@sc
   838  000166  0100               	movlb	0	; () banked
   839  000168  6FC2               	movwf	(storeASceneChannel@scp+1)& (0+255),b
   840  00016A  0100               	movlb	0	; () banked
   841  00016C  0EC9               	movlw	low storeSomeScenes@sc
   842  00016E  0100               	movlb	0	; () banked
   843  000170  6FC1               	movwf	storeASceneChannel@scp& (0+255),b
   844  000172  0E01               	movlw	1
   845  000174  ECAE  F003         	call	_storeASceneChannel
   846                           
   847                           ;scenes.c: 148: sc.level = 0x10; storeASceneChannel(1,5,&sc);
   848  000178  0E10               	movlw	16
   849  00017A  0100               	movlb	0	; () banked
   850  00017C  6FC9               	movwf	storeSomeScenes@sc& (0+255),b
   851                           
   852                           ; BSR set to: 0
   853  00017E  0E05               	movlw	5
   854  000180  0100               	movlb	0	; () banked
   855  000182  6FC0               	movwf	storeASceneChannel@channel& (0+255),b
   856  000184  0100               	movlb	0	; () banked
   857  000186  0E00               	movlw	high storeSomeScenes@sc
   858  000188  0100               	movlb	0	; () banked
   859  00018A  6FC2               	movwf	(storeASceneChannel@scp+1)& (0+255),b
   860  00018C  0100               	movlb	0	; () banked
   861  00018E  0EC9               	movlw	low storeSomeScenes@sc
   862  000190  0100               	movlb	0	; () banked
   863  000192  6FC1               	movwf	storeASceneChannel@scp& (0+255),b
   864  000194  0E01               	movlw	1
   865  000196  ECAE  F003         	call	_storeASceneChannel
   866                           
   867                           ;scenes.c: 149: sc.level = 0x10; storeASceneChannel(1,6,&sc);
   868  00019A  0E10               	movlw	16
   869  00019C  0100               	movlb	0	; () banked
   870  00019E  6FC9               	movwf	storeSomeScenes@sc& (0+255),b
   871                           
   872                           ; BSR set to: 0
   873  0001A0  0E06               	movlw	6
   874  0001A2  0100               	movlb	0	; () banked
   875  0001A4  6FC0               	movwf	storeASceneChannel@channel& (0+255),b
   876  0001A6  0100               	movlb	0	; () banked
   877  0001A8  0E00               	movlw	high storeSomeScenes@sc
   878  0001AA  0100               	movlb	0	; () banked
   879  0001AC  6FC2               	movwf	(storeASceneChannel@scp+1)& (0+255),b
   880  0001AE  0100               	movlb	0	; () banked
   881  0001B0  0EC9               	movlw	low storeSomeScenes@sc
   882  0001B2  0100               	movlb	0	; () banked
   883  0001B4  6FC1               	movwf	storeASceneChannel@scp& (0+255),b
   884  0001B6  0E01               	movlw	1
   885  0001B8  ECAE  F003         	call	_storeASceneChannel
   886                           
   887                           ;scenes.c: 150: sc.level = 0x10; storeASceneChannel(1,7,&sc);
   888  0001BC  0E10               	movlw	16
   889  0001BE  0100               	movlb	0	; () banked
   890  0001C0  6FC9               	movwf	storeSomeScenes@sc& (0+255),b
   891  0001C2  0E07               	movlw	7
   892  0001C4  0100               	movlb	0	; () banked
   893  0001C6  6FC0               	movwf	storeASceneChannel@channel& (0+255),b
   894  0001C8  0100               	movlb	0	; () banked
   895  0001CA  0E00               	movlw	high storeSomeScenes@sc
   896  0001CC  0100               	movlb	0	; () banked
   897  0001CE  6FC2               	movwf	(storeASceneChannel@scp+1)& (0+255),b
   898  0001D0  0100               	movlb	0	; () banked
   899  0001D2  0EC9               	movlw	low storeSomeScenes@sc
   900  0001D4  0100               	movlb	0	; () banked
   901  0001D6  6FC1               	movwf	storeASceneChannel@scp& (0+255),b
   902  0001D8  0E01               	movlw	1
   903  0001DA  ECAE  F003         	call	_storeASceneChannel
   904                           
   905                           ;scenes.c: 154: sc.level = 0x0A; storeASceneChannel(2,0,&sc);
   906  0001DE  0E0A               	movlw	10
   907  0001E0  0100               	movlb	0	; () banked
   908  0001E2  6FC9               	movwf	storeSomeScenes@sc& (0+255),b
   909                           
   910                           ; BSR set to: 0
   911  0001E4  0E00               	movlw	0
   912  0001E6  0100               	movlb	0	; () banked
   913  0001E8  6FC0               	movwf	storeASceneChannel@channel& (0+255),b
   914  0001EA  0100               	movlb	0	; () banked
   915  0001EC  0E00               	movlw	high storeSomeScenes@sc
   916  0001EE  0100               	movlb	0	; () banked
   917  0001F0  6FC2               	movwf	(storeASceneChannel@scp+1)& (0+255),b
   918  0001F2  0100               	movlb	0	; () banked
   919  0001F4  0EC9               	movlw	low storeSomeScenes@sc
   920  0001F6  0100               	movlb	0	; () banked
   921  0001F8  6FC1               	movwf	storeASceneChannel@scp& (0+255),b
   922  0001FA  0E02               	movlw	2
   923  0001FC  ECAE  F003         	call	_storeASceneChannel
   924                           
   925                           ;scenes.c: 155: sc.level = 0x0A; storeASceneChannel(2,1,&sc);
   926  000200  0E0A               	movlw	10
   927  000202  0100               	movlb	0	; () banked
   928  000204  6FC9               	movwf	storeSomeScenes@sc& (0+255),b
   929                           
   930                           ; BSR set to: 0
   931  000206  0E01               	movlw	1
   932  000208  0100               	movlb	0	; () banked
   933  00020A  6FC0               	movwf	storeASceneChannel@channel& (0+255),b
   934  00020C  0100               	movlb	0	; () banked
   935  00020E  0E00               	movlw	high storeSomeScenes@sc
   936  000210  0100               	movlb	0	; () banked
   937  000212  6FC2               	movwf	(storeASceneChannel@scp+1)& (0+255),b
   938  000214  0100               	movlb	0	; () banked
   939  000216  0EC9               	movlw	low storeSomeScenes@sc
   940  000218  0100               	movlb	0	; () banked
   941  00021A  6FC1               	movwf	storeASceneChannel@scp& (0+255),b
   942  00021C  0E02               	movlw	2
   943  00021E  ECAE  F003         	call	_storeASceneChannel
   944                           
   945                           ;scenes.c: 156: sc.level = 0x0A; storeASceneChannel(2,2,&sc);
   946  000222  0E0A               	movlw	10
   947  000224  0100               	movlb	0	; () banked
   948  000226  6FC9               	movwf	storeSomeScenes@sc& (0+255),b
   949  000228  0E02               	movlw	2
   950  00022A  0100               	movlb	0	; () banked
   951  00022C  6FC0               	movwf	storeASceneChannel@channel& (0+255),b
   952  00022E  0100               	movlb	0	; () banked
   953  000230  0E00               	movlw	high storeSomeScenes@sc
   954  000232  0100               	movlb	0	; () banked
   955  000234  6FC2               	movwf	(storeASceneChannel@scp+1)& (0+255),b
   956  000236  0100               	movlb	0	; () banked
   957  000238  0EC9               	movlw	low storeSomeScenes@sc
   958  00023A  0100               	movlb	0	; () banked
   959  00023C  6FC1               	movwf	storeASceneChannel@scp& (0+255),b
   960  00023E  0E02               	movlw	2
   961  000240  ECAE  F003         	call	_storeASceneChannel
   962                           
   963                           ;scenes.c: 157: sc.level = 0x0A; storeASceneChannel(2,3,&sc);
   964  000244  0E0A               	movlw	10
   965  000246  0100               	movlb	0	; () banked
   966  000248  6FC9               	movwf	storeSomeScenes@sc& (0+255),b
   967                           
   968                           ; BSR set to: 0
   969  00024A  0E03               	movlw	3
   970  00024C  0100               	movlb	0	; () banked
   971  00024E  6FC0               	movwf	storeASceneChannel@channel& (0+255),b
   972  000250  0100               	movlb	0	; () banked
   973  000252  0E00               	movlw	high storeSomeScenes@sc
   974  000254  0100               	movlb	0	; () banked
   975  000256  6FC2               	movwf	(storeASceneChannel@scp+1)& (0+255),b
   976  000258  0100               	movlb	0	; () banked
   977  00025A  0EC9               	movlw	low storeSomeScenes@sc
   978  00025C  0100               	movlb	0	; () banked
   979  00025E  6FC1               	movwf	storeASceneChannel@scp& (0+255),b
   980  000260  0E02               	movlw	2
   981  000262  ECAE  F003         	call	_storeASceneChannel
   982                           
   983                           ;scenes.c: 158: sc.level = 0x0A; storeASceneChannel(2,4,&sc);
   984  000266  0E0A               	movlw	10
   985  000268  0100               	movlb	0	; () banked
   986  00026A  6FC9               	movwf	storeSomeScenes@sc& (0+255),b
   987                           
   988                           ; BSR set to: 0
   989  00026C  0E04               	movlw	4
   990  00026E  0100               	movlb	0	; () banked
   991  000270  6FC0               	movwf	storeASceneChannel@channel& (0+255),b
   992  000272  0100               	movlb	0	; () banked
   993  000274  0E00               	movlw	high storeSomeScenes@sc
   994  000276  0100               	movlb	0	; () banked
   995  000278  6FC2               	movwf	(storeASceneChannel@scp+1)& (0+255),b
   996  00027A  0100               	movlb	0	; () banked
   997  00027C  0EC9               	movlw	low storeSomeScenes@sc
   998  00027E  0100               	movlb	0	; () banked
   999  000280  6FC1               	movwf	storeASceneChannel@scp& (0+255),b
  1000  000282  0E02               	movlw	2
  1001  000284  ECAE  F003         	call	_storeASceneChannel
  1002                           
  1003                           ;scenes.c: 160: sc.level = 0xFF; storeASceneChannel(2,5,&sc);
  1004  000288  0100               	movlb	0	; () banked
  1005  00028A  69C9               	setf	storeSomeScenes@sc& (0+255),b
  1006                           
  1007                           ; BSR set to: 0
  1008  00028C  0E05               	movlw	5
  1009  00028E  0100               	movlb	0	; () banked
  1010  000290  6FC0               	movwf	storeASceneChannel@channel& (0+255),b
  1011  000292  0100               	movlb	0	; () banked
  1012  000294  0E00               	movlw	high storeSomeScenes@sc
  1013  000296  0100               	movlb	0	; () banked
  1014  000298  6FC2               	movwf	(storeASceneChannel@scp+1)& (0+255),b
  1015  00029A  0100               	movlb	0	; () banked
  1016  00029C  0EC9               	movlw	low storeSomeScenes@sc
  1017  00029E  0100               	movlb	0	; () banked
  1018  0002A0  6FC1               	movwf	storeASceneChannel@scp& (0+255),b
  1019  0002A2  0E02               	movlw	2
  1020  0002A4  ECAE  F003         	call	_storeASceneChannel
  1021                           
  1022                           ;scenes.c: 161: sc.level = 0xDD; storeASceneChannel(2,6,&sc);
  1023  0002A8  0EDD               	movlw	221
  1024  0002AA  0100               	movlb	0	; () banked
  1025  0002AC  6FC9               	movwf	storeSomeScenes@sc& (0+255),b
  1026                           
  1027                           ; BSR set to: 0
  1028  0002AE  0E06               	movlw	6
  1029  0002B0  0100               	movlb	0	; () banked
  1030  0002B2  6FC0               	movwf	storeASceneChannel@channel& (0+255),b
  1031  0002B4  0100               	movlb	0	; () banked
  1032  0002B6  0E00               	movlw	high storeSomeScenes@sc
  1033  0002B8  0100               	movlb	0	; () banked
  1034  0002BA  6FC2               	movwf	(storeASceneChannel@scp+1)& (0+255),b
  1035  0002BC  0100               	movlb	0	; () banked
  1036  0002BE  0EC9               	movlw	low storeSomeScenes@sc
  1037  0002C0  0100               	movlb	0	; () banked
  1038  0002C2  6FC1               	movwf	storeASceneChannel@scp& (0+255),b
  1039  0002C4  0E02               	movlw	2
  1040  0002C6  ECAE  F003         	call	_storeASceneChannel
  1041                           
  1042                           ;scenes.c: 162: sc.level = 0x88; storeASceneChannel(2,7,&sc);
  1043  0002CA  0E88               	movlw	136
  1044  0002CC  0100               	movlb	0	; () banked
  1045  0002CE  6FC9               	movwf	storeSomeScenes@sc& (0+255),b
  1046  0002D0  0E07               	movlw	7
  1047  0002D2  0100               	movlb	0	; () banked
  1048  0002D4  6FC0               	movwf	storeASceneChannel@channel& (0+255),b
  1049  0002D6  0100               	movlb	0	; () banked
  1050  0002D8  0E00               	movlw	high storeSomeScenes@sc
  1051  0002DA  0100               	movlb	0	; () banked
  1052  0002DC  6FC2               	movwf	(storeASceneChannel@scp+1)& (0+255),b
  1053  0002DE  0100               	movlb	0	; () banked
  1054  0002E0  0EC9               	movlw	low storeSomeScenes@sc
  1055  0002E2  0100               	movlb	0	; () banked
  1056  0002E4  6FC1               	movwf	storeASceneChannel@scp& (0+255),b
  1057  0002E6  0E02               	movlw	2
  1058  0002E8  ECAE  F003         	call	_storeASceneChannel
  1059  0002EC  0012               	return	
  1060  0002EE                     __end_of_storeSomeScenes:
  1061                           	opt stack 0
  1062                           tblptru	equ	0xFF8
  1063                           intcon	equ	0xFF2
  1064                           postinc0	equ	0xFEE
  1065                           wreg	equ	0xFE8
  1066                           postdec1	equ	0xFE5
  1067                           fsr1h	equ	0xFE2
  1068                           fsr1l	equ	0xFE1
  1069                           status	equ	0xFD8
  1070                           
  1071 ;; *************** function _storeASceneChannel *****************
  1072 ;; Defined at:
  1073 ;;		line 121 in file "scenes.c"
  1074 ;; Parameters:    Size  Location     Type
  1075 ;;  scene           1    wreg     unsigned char 
  1076 ;;  channel         1   29[BANK0 ] unsigned char 
  1077 ;;  scp             2   30[BANK0 ] PTR struct _scenechannel
  1078 ;;		 -> storeSomeScenes@sc(3), 
  1079 ;; Auto vars:     Size  Location     Type
  1080 ;;  scene           1   35[BANK0 ] unsigned char 
  1081 ;;  baseAdress      2   36[BANK0 ] unsigned int 
  1082 ;; Return value:  Size  Location     Type
  1083 ;;		None               void
  1084 ;; Registers used:
  1085 ;;		wreg, fsr2l, fsr2h, status,2, status,0, prodl, prodh, cstack
  1086 ;; Tracked objects:
  1087 ;;		On entry : 0/0
  1088 ;;		On exit  : 0/0
  1089 ;;		Unchanged: 0/0
  1090 ;; Data sizes:     COMRAM   BANK0   BANK1   BANK2   BANK3   BANK4   BANK5
  1091 ;;      Params:         0       3       0       0       0       0       0
  1092 ;;      Locals:         0       3       0       0       0       0       0
  1093 ;;      Temps:          0       3       0       0       0       0       0
  1094 ;;      Totals:         0       9       0       0       0       0       0
  1095 ;;Total ram usage:        9 bytes
  1096 ;; Hardware stack levels used:    1
  1097 ;; Hardware stack levels required when called:   11
  1098 ;; This function calls:
  1099 ;;		_HDByteWriteI2C
  1100 ;;		_sceneAdress
  1101 ;; This function is called by:
  1102 ;;		_storeSomeScenes
  1103 ;; This function uses a non-reentrant model
  1104 ;;
  1105                           
  1106                           	psect	text2
  1107  00075C                     __ptext2:
  1108                           	opt stack 0
  1109  00075C                     _storeASceneChannel:
  1110                           	opt stack 17
  1111                           
  1112                           ;incstack = 0
  1113                           ;storeASceneChannel@scene stored from wreg
  1114  00075C  0100               	movlb	0	; () banked
  1115  00075E  6FC6               	movwf	storeASceneChannel@scene& (0+255),b
  1116                           
  1117                           ; BSR set to: 0
  1118                           ;scenes.c: 123: unsigned int baseAdress = sceneAdress(scene, channel);
  1119  000760  C0C0  F0BB         	movff	storeASceneChannel@channel,sceneAdress@channel
  1120  000764  0100               	movlb	0	; () banked
  1121  000766  51C6               	movf	storeASceneChannel@scene& (0+255),w,b
  1122  000768  EC9B  F006         	call	_sceneAdress
  1123  00076C  0100               	movlb	0	; () banked
  1124  00076E  C0BB  F0C7         	movff	?_sceneAdress,storeASceneChannel@baseAdress
  1125  000772  0100               	movlb	0	; () banked
  1126  000774  C0BC  F0C8         	movff	?_sceneAdress+1,storeASceneChannel@baseAdress+1
  1127                           
  1128                           ; BSR set to: 0
  1129                           ;scenes.c: 125: HDByteWriteI2C( 0xA0, (unsigned char )(baseAdress >> 8) , (unsigned char
      +                           )(baseAdress & 0xFF) , scp -> level );
  1130  000778  0100               	movlb	0	; () banked
  1131  00077A  C0C8  F0C3         	movff	storeASceneChannel@baseAdress+1,??_storeASceneChannel
  1132  00077E  C0C3  F0C4         	movff	??_storeASceneChannel,??_storeASceneChannel+1
  1133  000782  0100               	movlb	0	; () banked
  1134  000784  6BC5               	clrf	(??_storeASceneChannel+2)& (0+255),b
  1135  000786  0100               	movlb	0	; () banked
  1136  000788  51C4               	movf	(??_storeASceneChannel+1)& (0+255),w,b
  1137  00078A  0100               	movlb	0	; () banked
  1138  00078C  6FB9               	movwf	HDByteWriteI2C@HighAdd& (0+255),b
  1139  00078E  C0C7  F0BA         	movff	storeASceneChannel@baseAdress,HDByteWriteI2C@LowAdd
  1140  000792  C0C1  FFD9         	movff	storeASceneChannel@scp,fsr2l
  1141  000796  C0C2  FFDA         	movff	storeASceneChannel@scp+1,fsr2h
  1142  00079A  50DF               	movf	indf2,w,c
  1143  00079C  0100               	movlb	0	; () banked
  1144  00079E  6FBB               	movwf	HDByteWriteI2C@data& (0+255),b
  1145  0007A0  0EA0               	movlw	160
  1146  0007A2  ECD5  F002         	call	_HDByteWriteI2C
  1147                           
  1148                           ;scenes.c: 126: HDByteWriteI2C( 0xA0, (unsigned char )(baseAdress >> 8) , (unsigned char
      +                           )(baseAdress & 0xFF)+1 , scp -> isTransparent);
  1149  0007A6  0100               	movlb	0	; () banked
  1150  0007A8  C0C8  F0C3         	movff	storeASceneChannel@baseAdress+1,??_storeASceneChannel
  1151  0007AC  C0C3  F0C4         	movff	??_storeASceneChannel,??_storeASceneChannel+1
  1152  0007B0  0100               	movlb	0	; () banked
  1153  0007B2  6BC5               	clrf	(??_storeASceneChannel+2)& (0+255),b
  1154  0007B4  0100               	movlb	0	; () banked
  1155  0007B6  51C4               	movf	(??_storeASceneChannel+1)& (0+255),w,b
  1156  0007B8  0100               	movlb	0	; () banked
  1157  0007BA  6FB9               	movwf	HDByteWriteI2C@HighAdd& (0+255),b
  1158  0007BC  0100               	movlb	0	; () banked
  1159  0007BE  29C7               	incf	storeASceneChannel@baseAdress& (0+255),w,b
  1160  0007C0  0100               	movlb	0	; () banked
  1161  0007C2  6FBA               	movwf	HDByteWriteI2C@LowAdd& (0+255),b
  1162  0007C4  0100               	movlb	0	; () banked
  1163  0007C6  EE20 F001          	lfsr	2,1
  1164  0007CA  0100               	movlb	0	; () banked
  1165  0007CC  51C1               	movf	storeASceneChannel@scp& (0+255),w,b
  1166  0007CE  26D9               	addwf	fsr2l,f,c
  1167  0007D0  0100               	movlb	0	; () banked
  1168  0007D2  51C2               	movf	(storeASceneChannel@scp+1)& (0+255),w,b
  1169  0007D4  22DA               	addwfc	fsr2h,f,c
  1170  0007D6  50DF               	movf	indf2,w,c
  1171  0007D8  0100               	movlb	0	; () banked
  1172  0007DA  6FBB               	movwf	HDByteWriteI2C@data& (0+255),b
  1173  0007DC  0EA0               	movlw	160
  1174  0007DE  ECD5  F002         	call	_HDByteWriteI2C
  1175                           
  1176                           ;scenes.c: 127: HDByteWriteI2C( 0xA0, (unsigned char )(baseAdress >> 8) , (unsigned char
      +                           )(baseAdress & 0xFF)+2 , scp -> dimSpeed);
  1177  0007E2  0100               	movlb	0	; () banked
  1178  0007E4  C0C8  F0C3         	movff	storeASceneChannel@baseAdress+1,??_storeASceneChannel
  1179  0007E8  C0C3  F0C4         	movff	??_storeASceneChannel,??_storeASceneChannel+1
  1180  0007EC  0100               	movlb	0	; () banked
  1181  0007EE  6BC5               	clrf	(??_storeASceneChannel+2)& (0+255),b
  1182  0007F0  0100               	movlb	0	; () banked
  1183  0007F2  51C4               	movf	(??_storeASceneChannel+1)& (0+255),w,b
  1184  0007F4  0100               	movlb	0	; () banked
  1185  0007F6  6FB9               	movwf	HDByteWriteI2C@HighAdd& (0+255),b
  1186  0007F8  0100               	movlb	0	; () banked
  1187  0007FA  51C7               	movf	storeASceneChannel@baseAdress& (0+255),w,b
  1188  0007FC  0F02               	addlw	2
  1189  0007FE  0100               	movlb	0	; () banked
  1190  000800  6FBA               	movwf	HDByteWriteI2C@LowAdd& (0+255),b
  1191  000802  0100               	movlb	0	; () banked
  1192  000804  EE20 F002          	lfsr	2,2
  1193  000808  0100               	movlb	0	; () banked
  1194  00080A  51C1               	movf	storeASceneChannel@scp& (0+255),w,b
  1195  00080C  26D9               	addwf	fsr2l,f,c
  1196  00080E  0100               	movlb	0	; () banked
  1197  000810  51C2               	movf	(storeASceneChannel@scp+1)& (0+255),w,b
  1198  000812  22DA               	addwfc	fsr2h,f,c
  1199  000814  50DF               	movf	indf2,w,c
  1200  000816  0100               	movlb	0	; () banked
  1201  000818  6FBB               	movwf	HDByteWriteI2C@data& (0+255),b
  1202  00081A  0EA0               	movlw	160
  1203  00081C  ECD5  F002         	call	_HDByteWriteI2C
  1204  000820  0012               	return	
  1205  000822                     __end_of_storeASceneChannel:
  1206                           	opt stack 0
  1207                           tblptru	equ	0xFF8
  1208                           intcon	equ	0xFF2
  1209                           postinc0	equ	0xFEE
  1210                           wreg	equ	0xFE8
  1211                           postdec1	equ	0xFE5
  1212                           fsr1h	equ	0xFE2
  1213                           fsr1l	equ	0xFE1
  1214                           indf2	equ	0xFDF
  1215                           fsr2h	equ	0xFDA
  1216                           fsr2l	equ	0xFD9
  1217                           status	equ	0xFD8
  1218                           
  1219 ;; *************** function _sceneAdress *****************
  1220 ;; Defined at:
  1221 ;;		line 84 in file "scenes.c"
  1222 ;; Parameters:    Size  Location     Type
  1223 ;;  scene           1    wreg     unsigned char 
  1224 ;;  channel         1   24[BANK0 ] unsigned char 
  1225 ;; Auto vars:     Size  Location     Type
  1226 ;;  scene           1   26[BANK0 ] unsigned char 
  1227 ;;  baseAdress      2   27[BANK0 ] unsigned int 
  1228 ;; Return value:  Size  Location     Type
  1229 ;;                  2   24[BANK0 ] unsigned int 
  1230 ;; Registers used:
  1231 ;;		wreg, status,2, status,0, prodl, prodh, cstack
  1232 ;; Tracked objects:
  1233 ;;		On entry : 0/0
  1234 ;;		On exit  : 0/0
  1235 ;;		Unchanged: 0/0
  1236 ;; Data sizes:     COMRAM   BANK0   BANK1   BANK2   BANK3   BANK4   BANK5
  1237 ;;      Params:         0       2       0       0       0       0       0
  1238 ;;      Locals:         0       3       0       0       0       0       0
  1239 ;;      Temps:          0       0       0       0       0       0       0
  1240 ;;      Totals:         0       5       0       0       0       0       0
  1241 ;;Total ram usage:        5 bytes
  1242 ;; Hardware stack levels used:    1
  1243 ;; Hardware stack levels required when called:    9
  1244 ;; This function calls:
  1245 ;;		___wmul
  1246 ;; This function is called by:
  1247 ;;		_storeASceneChannel
  1248 ;; This function uses a non-reentrant model
  1249 ;;
  1250                           
  1251                           	psect	text3
  1252  000D36                     __ptext3:
  1253                           	opt stack 0
  1254  000D36                     _sceneAdress:
  1255                           	opt stack 18
  1256                           
  1257                           ;incstack = 0
  1258                           ;sceneAdress@scene stored from wreg
  1259  000D36  0100               	movlb	0	; () banked
  1260  000D38  6FBD               	movwf	sceneAdress@scene& (0+255),b
  1261                           
  1262                           ; BSR set to: 0
  1263                           ;scenes.c: 86: unsigned int baseAdress = 0x0100;
  1264  000D3A  0E01               	movlw	1
  1265  000D3C  0100               	movlb	0	; () banked
  1266  000D3E  6FBF               	movwf	(sceneAdress@baseAdress+1)& (0+255),b
  1267  000D40  0E00               	movlw	0
  1268  000D42  0100               	movlb	0	; () banked
  1269  000D44  6FBE               	movwf	sceneAdress@baseAdress& (0+255),b
  1270                           
  1271                           ; BSR set to: 0
  1272                           ;scenes.c: 88: baseAdress += ((scene-1) * sizeof(SCENECHANNEL) * 64) + (channel * sizeof
      +                          (SCENECHANNEL));
  1273  000D46  0EFF               	movlw	255
  1274  000D48  0100               	movlb	0	; () banked
  1275  000D4A  25BD               	addwf	sceneAdress@scene& (0+255),w,b
  1276  000D4C  0100               	movlb	0	; () banked
  1277  000D4E  6FB5               	movwf	___wmul@multiplier& (0+255),b
  1278  000D50  0100               	movlb	0	; () banked
  1279  000D52  6BB6               	clrf	(___wmul@multiplier+1)& (0+255),b
  1280  000D54  0EFF               	movlw	255
  1281  000D56  23B6               	addwfc	(___wmul@multiplier+1)& (0+255),f,b
  1282  000D58  0E00               	movlw	0
  1283  000D5A  0100               	movlb	0	; () banked
  1284  000D5C  6FB8               	movwf	(___wmul@multiplicand+1)& (0+255),b
  1285  000D5E  0E03               	movlw	3
  1286  000D60  0100               	movlb	0	; () banked
  1287  000D62  6FB7               	movwf	___wmul@multiplicand& (0+255),b
  1288  000D64  EC6E  F008         	call	___wmul	;wreg free
  1289  000D68  0E06               	movlw	6
  1290  000D6A                     u4265:
  1291  000D6A  90D8               	bcf	status,0,c
  1292  000D6C  0100               	movlb	0	; () banked
  1293  000D6E  37B5               	rlcf	?___wmul& (0+255),f,b
  1294  000D70  0100               	movlb	0	; () banked
  1295  000D72  37B6               	rlcf	(?___wmul+1)& (0+255),f,b
  1296  000D74  2EE8               	decfsz	wreg,f,c
  1297  000D76  D7F9               	goto	u4265
  1298  000D78  0100               	movlb	0	; () banked
  1299  000D7A  51BB               	movf	sceneAdress@channel& (0+255),w,b
  1300  000D7C  0D03               	mullw	3
  1301  000D7E  50F3               	movf	prodl,w,c
  1302  000D80  0100               	movlb	0	; () banked
  1303  000D82  27B5               	addwf	?___wmul& (0+255),f,b
  1304  000D84  50F4               	movf	prodh,w,c
  1305  000D86  0100               	movlb	0	; () banked
  1306  000D88  23B6               	addwfc	(?___wmul+1)& (0+255),f,b
  1307  000D8A  0100               	movlb	0	; () banked
  1308  000D8C  51B5               	movf	?___wmul& (0+255),w,b
  1309  000D8E  0100               	movlb	0	; () banked
  1310  000D90  27BE               	addwf	sceneAdress@baseAdress& (0+255),f,b
  1311  000D92  0100               	movlb	0	; () banked
  1312  000D94  51B6               	movf	(?___wmul+1)& (0+255),w,b
  1313  000D96  0100               	movlb	0	; () banked
  1314  000D98  23BF               	addwfc	(sceneAdress@baseAdress+1)& (0+255),f,b
  1315                           
  1316                           ; BSR set to: 0
  1317                           ;scenes.c: 90: return baseAdress;
  1318  000D9A  C0BE  F0BB         	movff	sceneAdress@baseAdress,?_sceneAdress
  1319  000D9E  C0BF  F0BC         	movff	sceneAdress@baseAdress+1,?_sceneAdress+1
  1320  000DA2  0012               	return	
  1321  000DA4                     __end_of_sceneAdress:
  1322                           	opt stack 0
  1323                           tblptru	equ	0xFF8
  1324                           prodh	equ	0xFF4
  1325                           prodl	equ	0xFF3
  1326                           intcon	equ	0xFF2
  1327                           postinc0	equ	0xFEE
  1328                           wreg	equ	0xFE8
  1329                           postdec1	equ	0xFE5
  1330                           fsr1h	equ	0xFE2
  1331                           fsr1l	equ	0xFE1
  1332                           indf2	equ	0xFDF
  1333                           fsr2h	equ	0xFDA
  1334                           fsr2l	equ	0xFD9
  1335                           status	equ	0xFD8
  1336                           
  1337 ;; *************** function ___wmul *****************
  1338 ;; Defined at:
  1339 ;;		line 15 in file "C:\Program Files (x86)\Microchip\xc8\v1.32\sources\common\Umul16.c"
  1340 ;; Parameters:    Size  Location     Type
  1341 ;;  multiplier      2   18[BANK0 ] unsigned int 
  1342 ;;  multiplicand    2   20[BANK0 ] unsigned int 
  1343 ;; Auto vars:     Size  Location     Type
  1344 ;;  product         2   22[BANK0 ] unsigned int 
  1345 ;; Return value:  Size  Location     Type
  1346 ;;                  2   18[BANK0 ] unsigned int 
  1347 ;; Registers used:
  1348 ;;		wreg, status,2, status,0, prodl, prodh
  1349 ;; Tracked objects:
  1350 ;;		On entry : 0/0
  1351 ;;		On exit  : 0/0
  1352 ;;		Unchanged: 0/0
  1353 ;; Data sizes:     COMRAM   BANK0   BANK1   BANK2   BANK3   BANK4   BANK5
  1354 ;;      Params:         0       4       0       0       0       0       0
  1355 ;;      Locals:         0       2       0       0       0       0       0
  1356 ;;      Temps:          0       0       0       0       0       0       0
  1357 ;;      Totals:         0       6       0       0       0       0       0
  1358 ;;Total ram usage:        6 bytes
  1359 ;; Hardware stack levels used:    1
  1360 ;; Hardware stack levels required when called:    8
  1361 ;; This function calls:
  1362 ;;		Nothing
  1363 ;; This function is called by:
  1364 ;;		_sceneAdress
  1365 ;; This function uses a non-reentrant model
  1366 ;;
  1367                           
  1368                           	psect	text4
  1369  0010DC                     __ptext4:
  1370                           	opt stack 0
  1371  0010DC                     ___wmul:
  1372                           	opt stack 18
  1373                           
  1374                           ; BSR set to: 0
  1375                           ;incstack = 0
  1376  0010DC  0100               	movlb	0	; () banked
  1377  0010DE  51B5               	movf	___wmul@multiplier& (0+255),w,b
  1378  0010E0  0100               	movlb	0	; () banked
  1379  0010E2  03B7               	mulwf	___wmul@multiplicand& (0+255),b
  1380  0010E4  CFF3 F0B9          	movff	prodl,___wmul@product
  1381  0010E8  CFF4 F0BA          	movff	prodh,___wmul@product+1
  1382  0010EC  0100               	movlb	0	; () banked
  1383  0010EE  51B5               	movf	___wmul@multiplier& (0+255),w,b
  1384  0010F0  0100               	movlb	0	; () banked
  1385  0010F2  03B8               	mulwf	(___wmul@multiplicand+1)& (0+255),b
  1386  0010F4  50F3               	movf	prodl,w,c
  1387  0010F6  0100               	movlb	0	; () banked
  1388  0010F8  27BA               	addwf	(___wmul@product+1)& (0+255),f,b
  1389  0010FA  0100               	movlb	0	; () banked
  1390  0010FC  51B6               	movf	(___wmul@multiplier+1)& (0+255),w,b
  1391  0010FE  0100               	movlb	0	; () banked
  1392  001100  03B7               	mulwf	___wmul@multiplicand& (0+255),b
  1393  001102  50F3               	movf	prodl,w,c
  1394  001104  0100               	movlb	0	; () banked
  1395  001106  27BA               	addwf	(___wmul@product+1)& (0+255),f,b
  1396                           
  1397                           ; BSR set to: 0
  1398  001108  C0B9  F0B5         	movff	___wmul@product,?___wmul
  1399  00110C  C0BA  F0B6         	movff	___wmul@product+1,?___wmul+1
  1400  001110  0012               	return	
  1401  001112                     __end_of___wmul:
  1402                           	opt stack 0
  1403                           tblptru	equ	0xFF8
  1404                           prodh	equ	0xFF4
  1405                           prodl	equ	0xFF3
  1406                           intcon	equ	0xFF2
  1407                           postinc0	equ	0xFEE
  1408                           wreg	equ	0xFE8
  1409                           postdec1	equ	0xFE5
  1410                           fsr1h	equ	0xFE2
  1411                           fsr1l	equ	0xFE1
  1412                           indf2	equ	0xFDF
  1413                           fsr2h	equ	0xFDA
  1414                           fsr2l	equ	0xFD9
  1415                           status	equ	0xFD8
  1416                           
  1417 ;; *************** function _readTestPattern *****************
  1418 ;; Defined at:
  1419 ;;		line 18 in file "massStorage.c"
  1420 ;; Parameters:    Size  Location     Type
  1421 ;;  bank            1    wreg     unsigned char 
  1422 ;; Auto vars:     Size  Location     Type
  1423 ;;  bank            1   62[BANK0 ] unsigned char 
  1424 ;;  r              32   30[BANK0 ] unsigned char [32]
  1425 ;; Return value:  Size  Location     Type
  1426 ;;		None               void
  1427 ;; Registers used:
  1428 ;;		wreg, fsr2l, fsr2h, status,2, status,0, cstack
  1429 ;; Tracked objects:
  1430 ;;		On entry : 0/0
  1431 ;;		On exit  : 0/0
  1432 ;;		Unchanged: 0/0
  1433 ;; Data sizes:     COMRAM   BANK0   BANK1   BANK2   BANK3   BANK4   BANK5
  1434 ;;      Params:         0       0       0       0       0       0       0
  1435 ;;      Locals:         0      33       0       0       0       0       0
  1436 ;;      Temps:          0       0       0       0       0       0       0
  1437 ;;      Totals:         0      33       0       0       0       0       0
  1438 ;;Total ram usage:       33 bytes
  1439 ;; Hardware stack levels used:    1
  1440 ;; Hardware stack levels required when called:   11
  1441 ;; This function calls:
  1442 ;;		_HDByteReadI2C
  1443 ;; This function is called by:
  1444 ;;		_main
  1445 ;; This function uses a non-reentrant model
  1446 ;;
  1447                           
  1448                           	psect	text5
  1449  000EBC                     __ptext5:
  1450                           	opt stack 0
  1451  000EBC                     _readTestPattern:
  1452                           	opt stack 18
  1453                           
  1454                           ; BSR set to: 0
  1455                           ;incstack = 0
  1456                           ;readTestPattern@bank stored from wreg
  1457  000EBC  0100               	movlb	0	; () banked
  1458  000EBE  6FE1               	movwf	readTestPattern@bank& (0+255),b
  1459                           
  1460                           ; BSR set to: 0
  1461                           ;massStorage.c: 20: unsigned char r[32];
  1462                           ;massStorage.c: 22: HDByteReadI2C( 0xA0,bank, 0, r, 32 );
  1463  000EC0  C0E1  F0BA         	movff	readTestPattern@bank,HDByteReadI2C@HighAdd
  1464  000EC4  0E00               	movlw	0
  1465  000EC6  0100               	movlb	0	; () banked
  1466  000EC8  6FBB               	movwf	HDByteReadI2C@LowAdd& (0+255),b
  1467  000ECA  0100               	movlb	0	; () banked
  1468  000ECC  0E00               	movlw	high readTestPattern@r
  1469  000ECE  0100               	movlb	0	; () banked
  1470  000ED0  6FBD               	movwf	(HDByteReadI2C@data+1)& (0+255),b
  1471  000ED2  0100               	movlb	0	; () banked
  1472  000ED4  0EC1               	movlw	low readTestPattern@r
  1473  000ED6  0100               	movlb	0	; () banked
  1474  000ED8  6FBC               	movwf	HDByteReadI2C@data& (0+255),b
  1475  000EDA  0E20               	movlw	32
  1476  000EDC  0100               	movlb	0	; () banked
  1477  000EDE  6FBE               	movwf	HDByteReadI2C@length& (0+255),b
  1478  000EE0  0EA0               	movlw	160
  1479  000EE2  EC55  F002         	call	_HDByteReadI2C
  1480                           
  1481                           ;massStorage.c: 23: HDByteReadI2C( 0xA0,bank, 0, r, 32 );
  1482  000EE6  C0E1  F0BA         	movff	readTestPattern@bank,HDByteReadI2C@HighAdd
  1483  000EEA  0E00               	movlw	0
  1484  000EEC  0100               	movlb	0	; () banked
  1485  000EEE  6FBB               	movwf	HDByteReadI2C@LowAdd& (0+255),b
  1486  000EF0  0100               	movlb	0	; () banked
  1487  000EF2  0E00               	movlw	high readTestPattern@r
  1488  000EF4  0100               	movlb	0	; () banked
  1489  000EF6  6FBD               	movwf	(HDByteReadI2C@data+1)& (0+255),b
  1490  000EF8  0100               	movlb	0	; () banked
  1491  000EFA  0EC1               	movlw	low readTestPattern@r
  1492  000EFC  0100               	movlb	0	; () banked
  1493  000EFE  6FBC               	movwf	HDByteReadI2C@data& (0+255),b
  1494  000F00  0E20               	movlw	32
  1495  000F02  0100               	movlb	0	; () banked
  1496  000F04  6FBE               	movwf	HDByteReadI2C@length& (0+255),b
  1497  000F06  0EA0               	movlw	160
  1498  000F08  EC55  F002         	call	_HDByteReadI2C
  1499  000F0C  0012               	return	
  1500  000F0E                     __end_of_readTestPattern:
  1501                           	opt stack 0
  1502                           tblptru	equ	0xFF8
  1503                           prodh	equ	0xFF4
  1504                           prodl	equ	0xFF3
  1505                           intcon	equ	0xFF2
  1506                           postinc0	equ	0xFEE
  1507                           wreg	equ	0xFE8
  1508                           postdec1	equ	0xFE5
  1509                           fsr1h	equ	0xFE2
  1510                           fsr1l	equ	0xFE1
  1511                           indf2	equ	0xFDF
  1512                           fsr2h	equ	0xFDA
  1513                           fsr2l	equ	0xFD9
  1514                           status	equ	0xFD8
  1515                           
  1516 ;; *************** function _initSceneChangeHardware *****************
  1517 ;; Defined at:
  1518 ;;		line 110 in file "scenes.c"
  1519 ;; Parameters:    Size  Location     Type
  1520 ;;		None
  1521 ;; Auto vars:     Size  Location     Type
  1522 ;;		None
  1523 ;; Return value:  Size  Location     Type
  1524 ;;		None               void
  1525 ;; Registers used:
  1526 ;;		wreg, status,2
  1527 ;; Tracked objects:
  1528 ;;		On entry : 0/0
  1529 ;;		On exit  : 0/0
  1530 ;;		Unchanged: 0/0
  1531 ;; Data sizes:     COMRAM   BANK0   BANK1   BANK2   BANK3   BANK4   BANK5
  1532 ;;      Params:         0       0       0       0       0       0       0
  1533 ;;      Locals:         0       0       0       0       0       0       0
  1534 ;;      Temps:          0       0       0       0       0       0       0
  1535 ;;      Totals:         0       0       0       0       0       0       0
  1536 ;;Total ram usage:        0 bytes
  1537 ;; Hardware stack levels used:    1
  1538 ;; Hardware stack levels required when called:    8
  1539 ;; This function calls:
  1540 ;;		Nothing
  1541 ;; This function is called by:
  1542 ;;		_main
  1543 ;; This function uses a non-reentrant model
  1544 ;;
  1545                           
  1546                           	psect	text6
  1547  00130C                     __ptext6:
  1548                           	opt stack 0
  1549  00130C                     _initSceneChangeHardware:
  1550                           	opt stack 21
  1551                           
  1552                           ;scenes.c: 112: T3CON = 0;
  1553                           
  1554                           ;incstack = 0
  1555  00130C  0E00               	movlw	0
  1556  00130E  6EB1               	movwf	4017,c	;volatile
  1557                           
  1558                           ;scenes.c: 113: T3CONbits.T3CKPS = 3;
  1559  001310  0E30               	movlw	48
  1560  001312  12B1               	iorwf	4017,f,c	;volatile
  1561                           
  1562                           ;scenes.c: 114: T3CONbits.TMR3ON = 1;
  1563  001314  80B1               	bsf	4017,0,c	;volatile
  1564                           
  1565                           ;scenes.c: 116: IPR2bits.TMR3IP = 0;
  1566  001316  92A2               	bcf	4002,1,c	;volatile
  1567                           
  1568                           ;scenes.c: 117: PIE2bits.TMR3IE = 1;
  1569  001318  82A0               	bsf	4000,1,c	;volatile
  1570  00131A  0012               	return	
  1571  00131C                     __end_of_initSceneChangeHardware:
  1572                           	opt stack 0
  1573                           tblptru	equ	0xFF8
  1574                           prodh	equ	0xFF4
  1575                           prodl	equ	0xFF3
  1576                           intcon	equ	0xFF2
  1577                           postinc0	equ	0xFEE
  1578                           wreg	equ	0xFE8
  1579                           postdec1	equ	0xFE5
  1580                           fsr1h	equ	0xFE2
  1581                           fsr1l	equ	0xFE1
  1582                           indf2	equ	0xFDF
  1583                           fsr2h	equ	0xFDA
  1584                           fsr2l	equ	0xFD9
  1585                           status	equ	0xFD8
  1586                           
  1587 ;; *************** function _initI2C *****************
  1588 ;; Defined at:
  1589 ;;		line 28 in file "massStorage.c"
  1590 ;; Parameters:    Size  Location     Type
  1591 ;;		None
  1592 ;; Auto vars:     Size  Location     Type
  1593 ;;		None
  1594 ;; Return value:  Size  Location     Type
  1595 ;;		None               void
  1596 ;; Registers used:
  1597 ;;		wreg, status,2, status,0, cstack
  1598 ;; Tracked objects:
  1599 ;;		On entry : 0/0
  1600 ;;		On exit  : 0/0
  1601 ;;		Unchanged: 0/0
  1602 ;; Data sizes:     COMRAM   BANK0   BANK1   BANK2   BANK3   BANK4   BANK5
  1603 ;;      Params:         0       0       0       0       0       0       0
  1604 ;;      Locals:         0       0       0       0       0       0       0
  1605 ;;      Temps:          0       0       0       0       0       0       0
  1606 ;;      Totals:         0       0       0       0       0       0       0
  1607 ;;Total ram usage:        0 bytes
  1608 ;; Hardware stack levels used:    1
  1609 ;; Hardware stack levels required when called:    9
  1610 ;; This function calls:
  1611 ;;		_OpenI2C1
  1612 ;; This function is called by:
  1613 ;;		_main
  1614 ;; This function uses a non-reentrant model
  1615 ;;
  1616                           
  1617                           	psect	text7
  1618  0012FA                     __ptext7:
  1619                           	opt stack 0
  1620  0012FA                     _initI2C:
  1621                           	opt stack 20
  1622                           
  1623                           ;massStorage.c: 30: OpenI2C1(0b00001000, 0b10000000);
  1624                           
  1625                           ;incstack = 0
  1626  0012FA  0E80               	movlw	128
  1627  0012FC  0100               	movlb	0	; () banked
  1628  0012FE  6FB5               	movwf	OpenI2C1@slew& (0+255),b
  1629  001300  0E08               	movlw	8
  1630  001302  EC51  F009         	call	_OpenI2C1
  1631                           
  1632                           ;massStorage.c: 31: SSPADD = 119;
  1633  001306  0E77               	movlw	119
  1634  001308  6EC8               	movwf	4040,c	;volatile
  1635  00130A  0012               	return	
  1636  00130C                     __end_of_initI2C:
  1637                           	opt stack 0
  1638                           tblptru	equ	0xFF8
  1639                           prodh	equ	0xFF4
  1640                           prodl	equ	0xFF3
  1641                           intcon	equ	0xFF2
  1642                           postinc0	equ	0xFEE
  1643                           wreg	equ	0xFE8
  1644                           postdec1	equ	0xFE5
  1645                           fsr1h	equ	0xFE2
  1646                           fsr1l	equ	0xFE1
  1647                           indf2	equ	0xFDF
  1648                           fsr2h	equ	0xFDA
  1649                           fsr2l	equ	0xFD9
  1650                           status	equ	0xFD8
  1651                           
  1652 ;; *************** function _OpenI2C1 *****************
  1653 ;; Defined at:
  1654 ;;		line 29 in file "C:\Program Files (x86)\Microchip\xc8\v1.32\sources\pic18\plib\i2c\i2c1open.c"
  1655 ;; Parameters:    Size  Location     Type
  1656 ;;  sync_mode       1    wreg     unsigned char 
  1657 ;;  slew            1   18[BANK0 ] unsigned char 
  1658 ;; Auto vars:     Size  Location     Type
  1659 ;;  sync_mode       1   19[BANK0 ] unsigned char 
  1660 ;; Return value:  Size  Location     Type
  1661 ;;		None               void
  1662 ;; Registers used:
  1663 ;;		wreg, status,2, status,0
  1664 ;; Tracked objects:
  1665 ;;		On entry : 0/0
  1666 ;;		On exit  : 0/0
  1667 ;;		Unchanged: 0/0
  1668 ;; Data sizes:     COMRAM   BANK0   BANK1   BANK2   BANK3   BANK4   BANK5
  1669 ;;      Params:         0       1       0       0       0       0       0
  1670 ;;      Locals:         0       1       0       0       0       0       0
  1671 ;;      Temps:          0       0       0       0       0       0       0
  1672 ;;      Totals:         0       2       0       0       0       0       0
  1673 ;;Total ram usage:        2 bytes
  1674 ;; Hardware stack levels used:    1
  1675 ;; Hardware stack levels required when called:    8
  1676 ;; This function calls:
  1677 ;;		Nothing
  1678 ;; This function is called by:
  1679 ;;		_initI2C
  1680 ;; This function uses a non-reentrant model
  1681 ;;
  1682                           
  1683                           	psect	text8
  1684  0012A2                     __ptext8:
  1685                           	opt stack 0
  1686  0012A2                     _OpenI2C1:
  1687                           	opt stack 20
  1688                           
  1689                           ;incstack = 0
  1690                           ;OpenI2C1@sync_mode stored from wreg
  1691  0012A2  0100               	movlb	0	; () banked
  1692  0012A4  6FB6               	movwf	OpenI2C1@sync_mode& (0+255),b
  1693                           
  1694                           ; BSR set to: 0
  1695  0012A6  0E3F               	movlw	63
  1696  0012A8  16C7               	andwf	4039,f,c	;volatile
  1697                           
  1698                           ; BSR set to: 0
  1699  0012AA  0E00               	movlw	0
  1700  0012AC  6EC6               	movwf	4038,c	;volatile
  1701                           
  1702                           ; BSR set to: 0
  1703  0012AE  0E00               	movlw	0
  1704  0012B0  6EC5               	movwf	4037,c	;volatile
  1705  0012B2  0100               	movlb	0	; () banked
  1706  0012B4  51B6               	movf	OpenI2C1@sync_mode& (0+255),w,b
  1707  0012B6  12C6               	iorwf	4038,f,c	;volatile
  1708  0012B8  0100               	movlb	0	; () banked
  1709  0012BA  51B5               	movf	OpenI2C1@slew& (0+255),w,b
  1710  0012BC  12C7               	iorwf	4039,f,c	;volatile
  1711                           
  1712                           ; BSR set to: 0
  1713  0012BE  8AC6               	bsf	4038,5,c	;volatile
  1714                           
  1715                           ; BSR set to: 0
  1716  0012C0  0012               	return	
  1717  0012C2                     __end_of_OpenI2C1:
  1718                           	opt stack 0
  1719                           tblptru	equ	0xFF8
  1720                           prodh	equ	0xFF4
  1721                           prodl	equ	0xFF3
  1722                           intcon	equ	0xFF2
  1723                           postinc0	equ	0xFEE
  1724                           wreg	equ	0xFE8
  1725                           postdec1	equ	0xFE5
  1726                           fsr1h	equ	0xFE2
  1727                           fsr1l	equ	0xFE1
  1728                           indf2	equ	0xFDF
  1729                           fsr2h	equ	0xFDA
  1730                           fsr2l	equ	0xFD9
  1731                           status	equ	0xFD8
  1732                           
  1733 ;; *************** function _initHardware *****************
  1734 ;; Defined at:
  1735 ;;		line 6 in file "hardware.c"
  1736 ;; Parameters:    Size  Location     Type
  1737 ;;		None
  1738 ;; Auto vars:     Size  Location     Type
  1739 ;;		None
  1740 ;; Return value:  Size  Location     Type
  1741 ;;		None               void
  1742 ;; Registers used:
  1743 ;;		wreg, status,2
  1744 ;; Tracked objects:
  1745 ;;		On entry : 0/0
  1746 ;;		On exit  : 0/0
  1747 ;;		Unchanged: 0/0
  1748 ;; Data sizes:     COMRAM   BANK0   BANK1   BANK2   BANK3   BANK4   BANK5
  1749 ;;      Params:         0       0       0       0       0       0       0
  1750 ;;      Locals:         0       0       0       0       0       0       0
  1751 ;;      Temps:          0       0       0       0       0       0       0
  1752 ;;      Totals:         0       0       0       0       0       0       0
  1753 ;;Total ram usage:        0 bytes
  1754 ;; Hardware stack levels used:    1
  1755 ;; Hardware stack levels required when called:    8
  1756 ;; This function calls:
  1757 ;;		Nothing
  1758 ;; This function is called by:
  1759 ;;		_main
  1760 ;; This function uses a non-reentrant model
  1761 ;;
  1762                           
  1763                           	psect	text9
  1764  000FAA                     __ptext9:
  1765                           	opt stack 0
  1766  000FAA                     _initHardware:
  1767                           	opt stack 21
  1768                           
  1769                           ;hardware.c: 10: OSCCONbits.IDLEN = 0;
  1770                           
  1771                           ; BSR set to: 0
  1772                           ;incstack = 0
  1773  000FAA  9ED3               	bcf	4051,7,c	;volatile
  1774                           
  1775                           ;hardware.c: 12: OSCCONbits.IRCF2 = 1;
  1776  000FAC  8CD3               	bsf	4051,6,c	;volatile
  1777                           
  1778                           ;hardware.c: 13: OSCCONbits.IRCF1 = 1;
  1779  000FAE  8AD3               	bsf	4051,5,c	;volatile
  1780                           
  1781                           ;hardware.c: 14: OSCCONbits.IRCF0 = 0;
  1782  000FB0  98D3               	bcf	4051,4,c	;volatile
  1783                           
  1784                           ;hardware.c: 16: OSCCONbits.SCS1 = 1;
  1785  000FB2  82D3               	bsf	4051,1,c	;volatile
  1786                           
  1787                           ;hardware.c: 17: OSCCONbits.SCS0 = 0;
  1788  000FB4  90D3               	bcf	4051,0,c	;volatile
  1789                           
  1790                           ;hardware.c: 23: CM1CON0 = 0;
  1791  000FB6  0E00               	movlw	0
  1792  000FB8  6E79               	movwf	3961,c	;volatile
  1793                           
  1794                           ;hardware.c: 24: CM2CON0 = 0;
  1795  000FBA  0E00               	movlw	0
  1796  000FBC  6E78               	movwf	3960,c	;volatile
  1797                           
  1798                           ;hardware.c: 30: LATA = 0x00;
  1799  000FBE  0E00               	movlw	0
  1800  000FC0  6E89               	movwf	3977,c	;volatile
  1801                           
  1802                           ;hardware.c: 31: PORTA = 0x00;
  1803  000FC2  0E00               	movlw	0
  1804  000FC4  6E80               	movwf	3968,c	;volatile
  1805                           
  1806                           ;hardware.c: 32: TRISA = 0b00000111;
  1807  000FC6  0E07               	movlw	7
  1808  000FC8  6E92               	movwf	3986,c	;volatile
  1809                           
  1810                           ;hardware.c: 41: PORTB = 0x00;
  1811  000FCA  0E00               	movlw	0
  1812  000FCC  6E81               	movwf	3969,c	;volatile
  1813                           
  1814                           ;hardware.c: 42: LATB = 0x00;
  1815  000FCE  0E00               	movlw	0
  1816  000FD0  6E8A               	movwf	3978,c	;volatile
  1817                           
  1818                           ;hardware.c: 43: ANSELB = 0x00;
  1819  000FD2  0E00               	movlw	0
  1820  000FD4  010F               	movlb	15	; () banked
  1821  000FD6  6F39               	movwf	57,b	;volatile
  1822                           
  1823                           ;hardware.c: 44: TRISB = 0b00100111;
  1824  000FD8  0E27               	movlw	39
  1825  000FDA  6E93               	movwf	3987,c	;volatile
  1826                           
  1827                           ; BSR set to: 15
  1828                           ;hardware.c: 45: TRISBbits.RB0 |= 1;
  1829  000FDC  8093               	bsf	3987,0,c	;volatile
  1830                           
  1831                           ; BSR set to: 15
  1832                           ;hardware.c: 46: TRISBbits.RB1 |= 1;
  1833  000FDE  8293               	bsf	3987,1,c	;volatile
  1834                           
  1835                           ;hardware.c: 51: LATC = 0x00;
  1836  000FE0  0E00               	movlw	0
  1837  000FE2  6E8B               	movwf	3979,c	;volatile
  1838                           
  1839                           ;hardware.c: 52: PORTC = 0x00;
  1840  000FE4  0E00               	movlw	0
  1841  000FE6  6E82               	movwf	3970,c	;volatile
  1842                           
  1843                           ;hardware.c: 54: TRISC = 0b10110000;
  1844  000FE8  0EB0               	movlw	176
  1845  000FEA  6E94               	movwf	3988,c	;volatile
  1846                           
  1847                           ; BSR set to: 15
  1848                           ;hardware.c: 55: TRISCbits.TRISC6 = 1;
  1849  000FEC  8C94               	bsf	3988,6,c	;volatile
  1850                           
  1851                           ; BSR set to: 15
  1852                           ;hardware.c: 58: TRISD = 0b11111111;
  1853  000FEE  6895               	setf	3989,c	;volatile
  1854                           
  1855                           ; BSR set to: 15
  1856  000FF0  0012               	return	
  1857  000FF2                     __end_of_initHardware:
  1858                           	opt stack 0
  1859                           tblptru	equ	0xFF8
  1860                           prodh	equ	0xFF4
  1861                           prodl	equ	0xFF3
  1862                           intcon	equ	0xFF2
  1863                           postinc0	equ	0xFEE
  1864                           wreg	equ	0xFE8
  1865                           postdec1	equ	0xFE5
  1866                           fsr1h	equ	0xFE2
  1867                           fsr1l	equ	0xFE1
  1868                           indf2	equ	0xFDF
  1869                           fsr2h	equ	0xFDA
  1870                           fsr2l	equ	0xFD9
  1871                           status	equ	0xFD8
  1872                           
  1873 ;; *************** function _initFlashButtonMatrix *****************
  1874 ;; Defined at:
  1875 ;;		line 197 in file "buttons.c"
  1876 ;; Parameters:    Size  Location     Type
  1877 ;;		None
  1878 ;; Auto vars:     Size  Location     Type
  1879 ;;  i               1   29[BANK0 ] unsigned char 
  1880 ;; Return value:  Size  Location     Type
  1881 ;;		None               void
  1882 ;; Registers used:
  1883 ;;		wreg, status,2, status,0, cstack
  1884 ;; Tracked objects:
  1885 ;;		On entry : 0/0
  1886 ;;		On exit  : 0/0
  1887 ;;		Unchanged: 0/0
  1888 ;; Data sizes:     COMRAM   BANK0   BANK1   BANK2   BANK3   BANK4   BANK5
  1889 ;;      Params:         0       0       0       0       0       0       0
  1890 ;;      Locals:         0       1       0       0       0       0       0
  1891 ;;      Temps:          0       0       0       0       0       0       0
  1892 ;;      Totals:         0       1       0       0       0       0       0
  1893 ;;Total ram usage:        1 bytes
  1894 ;; Hardware stack levels used:    1
  1895 ;; Hardware stack levels required when called:   12
  1896 ;; This function calls:
  1897 ;;		_storeAButton
  1898 ;; This function is called by:
  1899 ;;		_main
  1900 ;; This function uses a non-reentrant model
  1901 ;;
  1902                           
  1903                           	psect	text10
  1904  0002EE                     __ptext10:
  1905                           	opt stack 0
  1906  0002EE                     _initFlashButtonMatrix:
  1907                           	opt stack 17
  1908                           
  1909                           ;buttons.c: 199: unsigned char i;
  1910                           ;buttons.c: 201: for ( i = 0; i < 0xFF; i++) {
  1911                           
  1912                           ; BSR set to: 15
  1913                           ;incstack = 0
  1914  0002EE  0E00               	movlw	0
  1915  0002F0  0100               	movlb	0	; () banked
  1916  0002F2  6FC0               	movwf	initFlashButtonMatrix@i& (0+255),b
  1917  0002F4                     
  1918                           ; BSR set to: 0
  1919  0002F4  0100               	movlb	0	; () banked
  1920  0002F6  29C0               	incf	initFlashButtonMatrix@i& (0+255),w,b
  1921  0002F8  B4D8               	btfsc	status,2,c
  1922  0002FA  D00A               	goto	l2866
  1923                           
  1924                           ; BSR set to: 0
  1925                           ;buttons.c: 202: storeAButton( i, 0x00 );
  1926                           
  1927                           ; BSR set to: 0
  1928                           
  1929                           ; BSR set to: 0
  1930  0002FC  0E00               	movlw	0
  1931  0002FE  0100               	movlb	0	; () banked
  1932  000300  6FBE               	movwf	storeAButton@program& (0+255),b
  1933  000302  0100               	movlb	0	; () banked
  1934  000304  51C0               	movf	initFlashButtonMatrix@i& (0+255),w,b
  1935  000306  EC70  F009         	call	_storeAButton
  1936  00030A  0100               	movlb	0	; () banked
  1937  00030C  2BC0               	incf	initFlashButtonMatrix@i& (0+255),f,b
  1938  00030E  D7F2               	goto	L1
  1939  000310                     l2866:
  1940                           
  1941                           ; BSR set to: 0
  1942                           ;buttons.c: 203: }
  1943                           ;buttons.c: 205: storeAButton(0x12, 1 );
  1944  000310  0E01               	movlw	1
  1945  000312  0100               	movlb	0	; () banked
  1946  000314  6FBE               	movwf	storeAButton@program& (0+255),b
  1947  000316  0E12               	movlw	18
  1948  000318  EC70  F009         	call	_storeAButton
  1949                           
  1950                           ;buttons.c: 206: storeAButton(0x13, 2 );
  1951  00031C  0E02               	movlw	2
  1952  00031E  0100               	movlb	0	; () banked
  1953  000320  6FBE               	movwf	storeAButton@program& (0+255),b
  1954  000322  0E13               	movlw	19
  1955  000324  EC70  F009         	call	_storeAButton
  1956                           
  1957                           ;buttons.c: 207: storeAButton(0x14, 3 );
  1958  000328  0E03               	movlw	3
  1959  00032A  0100               	movlb	0	; () banked
  1960  00032C  6FBE               	movwf	storeAButton@program& (0+255),b
  1961  00032E  0E14               	movlw	20
  1962  000330  EC70  F009         	call	_storeAButton
  1963                           
  1964                           ;buttons.c: 208: storeAButton(0x15, 4 );
  1965  000334  0E04               	movlw	4
  1966  000336  0100               	movlb	0	; () banked
  1967  000338  6FBE               	movwf	storeAButton@program& (0+255),b
  1968  00033A  0E15               	movlw	21
  1969  00033C  EC70  F009         	call	_storeAButton
  1970                           
  1971                           ;buttons.c: 209: storeAButton(0x16, 5 );
  1972  000340  0E05               	movlw	5
  1973  000342  0100               	movlb	0	; () banked
  1974  000344  6FBE               	movwf	storeAButton@program& (0+255),b
  1975  000346  0E16               	movlw	22
  1976  000348  EC70  F009         	call	_storeAButton
  1977                           
  1978                           ;buttons.c: 210: storeAButton(0x17, 6 );
  1979  00034C  0E06               	movlw	6
  1980  00034E  0100               	movlb	0	; () banked
  1981  000350  6FBE               	movwf	storeAButton@program& (0+255),b
  1982  000352  0E17               	movlw	23
  1983  000354  EC70  F009         	call	_storeAButton
  1984                           
  1985                           ;buttons.c: 211: storeAButton(0x18, 7 );
  1986  000358  0E07               	movlw	7
  1987  00035A  0100               	movlb	0	; () banked
  1988  00035C  6FBE               	movwf	storeAButton@program& (0+255),b
  1989  00035E  0E18               	movlw	24
  1990  000360  EC70  F009         	call	_storeAButton
  1991                           
  1992                           ;buttons.c: 212: storeAButton(0x19, 8 );
  1993  000364  0E08               	movlw	8
  1994  000366  0100               	movlb	0	; () banked
  1995  000368  6FBE               	movwf	storeAButton@program& (0+255),b
  1996  00036A  0E19               	movlw	25
  1997  00036C  EC70  F009         	call	_storeAButton
  1998                           
  1999                           ;buttons.c: 213: storeAButton(0x1A, 9 );
  2000  000370  0E09               	movlw	9
  2001  000372  0100               	movlb	0	; () banked
  2002  000374  6FBE               	movwf	storeAButton@program& (0+255),b
  2003  000376  0E1A               	movlw	26
  2004  000378  EC70  F009         	call	_storeAButton
  2005                           
  2006                           ;buttons.c: 214: storeAButton(0x1B, 1 );
  2007  00037C  0E01               	movlw	1
  2008  00037E  0100               	movlb	0	; () banked
  2009  000380  6FBE               	movwf	storeAButton@program& (0+255),b
  2010  000382  0E1B               	movlw	27
  2011  000384  EC70  F009         	call	_storeAButton
  2012                           
  2013                           ;buttons.c: 216: storeAButton( 0x20, 0x0A );
  2014  000388  0E0A               	movlw	10
  2015  00038A  0100               	movlb	0	; () banked
  2016  00038C  6FBE               	movwf	storeAButton@program& (0+255),b
  2017  00038E  0E20               	movlw	32
  2018  000390  EC70  F009         	call	_storeAButton
  2019                           
  2020                           ;buttons.c: 217: storeAButton( 0x21, 0x0B );
  2021  000394  0E0B               	movlw	11
  2022  000396  0100               	movlb	0	; () banked
  2023  000398  6FBE               	movwf	storeAButton@program& (0+255),b
  2024  00039A  0E21               	movlw	33
  2025  00039C  EC70  F009         	call	_storeAButton
  2026                           
  2027                           ;buttons.c: 218: storeAButton( 0x22, 0x0C );
  2028  0003A0  0E0C               	movlw	12
  2029  0003A2  0100               	movlb	0	; () banked
  2030  0003A4  6FBE               	movwf	storeAButton@program& (0+255),b
  2031  0003A6  0E22               	movlw	34
  2032  0003A8  EC70  F009         	call	_storeAButton
  2033                           
  2034                           ;buttons.c: 219: storeAButton( 0x23, 0x0D );
  2035  0003AC  0E0D               	movlw	13
  2036  0003AE  0100               	movlb	0	; () banked
  2037  0003B0  6FBE               	movwf	storeAButton@program& (0+255),b
  2038  0003B2  0E23               	movlw	35
  2039  0003B4  EC70  F009         	call	_storeAButton
  2040                           
  2041                           ;buttons.c: 220: storeAButton( 0x24, 0x0E );
  2042  0003B8  0E0E               	movlw	14
  2043  0003BA  0100               	movlb	0	; () banked
  2044  0003BC  6FBE               	movwf	storeAButton@program& (0+255),b
  2045  0003BE  0E24               	movlw	36
  2046  0003C0  EC70  F009         	call	_storeAButton
  2047                           
  2048                           ;buttons.c: 221: storeAButton( 0x25, 0x0F );
  2049  0003C4  0E0F               	movlw	15
  2050  0003C6  0100               	movlb	0	; () banked
  2051  0003C8  6FBE               	movwf	storeAButton@program& (0+255),b
  2052  0003CA  0E25               	movlw	37
  2053  0003CC  EC70  F009         	call	_storeAButton
  2054                           
  2055                           ;buttons.c: 222: storeAButton( 0x26, 0x10 );
  2056  0003D0  0E10               	movlw	16
  2057  0003D2  0100               	movlb	0	; () banked
  2058  0003D4  6FBE               	movwf	storeAButton@program& (0+255),b
  2059  0003D6  0E26               	movlw	38
  2060  0003D8  EC70  F009         	call	_storeAButton
  2061                           
  2062                           ;buttons.c: 223: storeAButton( 0x27, 0x30 );
  2063  0003DC  0E30               	movlw	48
  2064  0003DE  0100               	movlb	0	; () banked
  2065  0003E0  6FBE               	movwf	storeAButton@program& (0+255),b
  2066  0003E2  0E27               	movlw	39
  2067  0003E4  EC70  F009         	call	_storeAButton
  2068                           
  2069                           ;buttons.c: 225: storeAButton( 0x30, 0x10 );
  2070  0003E8  0E10               	movlw	16
  2071  0003EA  0100               	movlb	0	; () banked
  2072  0003EC  6FBE               	movwf	storeAButton@program& (0+255),b
  2073  0003EE  0E30               	movlw	48
  2074  0003F0  EC70  F009         	call	_storeAButton
  2075                           
  2076                           ;buttons.c: 226: storeAButton( 0x31, 0x11 );
  2077  0003F4  0E11               	movlw	17
  2078  0003F6  0100               	movlb	0	; () banked
  2079  0003F8  6FBE               	movwf	storeAButton@program& (0+255),b
  2080  0003FA  0E31               	movlw	49
  2081  0003FC  EC70  F009         	call	_storeAButton
  2082                           
  2083                           ;buttons.c: 227: storeAButton( 0x32, 0x12 );
  2084  000400  0E12               	movlw	18
  2085  000402  0100               	movlb	0	; () banked
  2086  000404  6FBE               	movwf	storeAButton@program& (0+255),b
  2087  000406  0E32               	movlw	50
  2088  000408  EC70  F009         	call	_storeAButton
  2089                           
  2090                           ;buttons.c: 228: storeAButton( 0x33, 0x13 );
  2091  00040C  0E13               	movlw	19
  2092  00040E  0100               	movlb	0	; () banked
  2093  000410  6FBE               	movwf	storeAButton@program& (0+255),b
  2094  000412  0E33               	movlw	51
  2095  000414  EC70  F009         	call	_storeAButton
  2096                           
  2097                           ;buttons.c: 229: storeAButton( 0x34, 0x14 );
  2098  000418  0E14               	movlw	20
  2099  00041A  0100               	movlb	0	; () banked
  2100  00041C  6FBE               	movwf	storeAButton@program& (0+255),b
  2101  00041E  0E34               	movlw	52
  2102  000420  EC70  F009         	call	_storeAButton
  2103                           
  2104                           ;buttons.c: 230: storeAButton( 0x35, 0x1A );
  2105  000424  0E1A               	movlw	26
  2106  000426  0100               	movlb	0	; () banked
  2107  000428  6FBE               	movwf	storeAButton@program& (0+255),b
  2108  00042A  0E35               	movlw	53
  2109  00042C  EC70  F009         	call	_storeAButton
  2110                           
  2111                           ;buttons.c: 231: storeAButton( 0x36, 0x1B );
  2112  000430  0E1B               	movlw	27
  2113  000432  0100               	movlb	0	; () banked
  2114  000434  6FBE               	movwf	storeAButton@program& (0+255),b
  2115  000436  0E36               	movlw	54
  2116  000438  EC70  F009         	call	_storeAButton
  2117                           
  2118                           ;buttons.c: 232: storeAButton( 0x37, 0x1C );
  2119  00043C  0E1C               	movlw	28
  2120  00043E  0100               	movlb	0	; () banked
  2121  000440  6FBE               	movwf	storeAButton@program& (0+255),b
  2122  000442  0E37               	movlw	55
  2123  000444  EC70  F009         	call	_storeAButton
  2124                           
  2125                           ;buttons.c: 233: storeAButton( 0x38, 0x1D );
  2126  000448  0E1D               	movlw	29
  2127  00044A  0100               	movlb	0	; () banked
  2128  00044C  6FBE               	movwf	storeAButton@program& (0+255),b
  2129  00044E  0E38               	movlw	56
  2130  000450  EC70  F009         	call	_storeAButton
  2131                           
  2132                           ;buttons.c: 234: storeAButton( 0x39, 0x1E );
  2133  000454  0E1E               	movlw	30
  2134  000456  0100               	movlb	0	; () banked
  2135  000458  6FBE               	movwf	storeAButton@program& (0+255),b
  2136  00045A  0E39               	movlw	57
  2137  00045C  EC70  F009         	call	_storeAButton
  2138                           
  2139                           ;buttons.c: 235: storeAButton( 0x3A, 0x1F );
  2140  000460  0E1F               	movlw	31
  2141  000462  0100               	movlb	0	; () banked
  2142  000464  6FBE               	movwf	storeAButton@program& (0+255),b
  2143  000466  0E3A               	movlw	58
  2144  000468  EC70  F009         	call	_storeAButton
  2145                           
  2146                           ;buttons.c: 236: storeAButton( 0x3B, 0x30 );
  2147  00046C  0E30               	movlw	48
  2148  00046E  0100               	movlb	0	; () banked
  2149  000470  6FBE               	movwf	storeAButton@program& (0+255),b
  2150  000472  0E3B               	movlw	59
  2151  000474  EC70  F009         	call	_storeAButton
  2152                           
  2153                           ;buttons.c: 238: storeAButton( 0x40, 0x20 );
  2154  000478  0E20               	movlw	32
  2155  00047A  0100               	movlb	0	; () banked
  2156  00047C  6FBE               	movwf	storeAButton@program& (0+255),b
  2157  00047E  0E40               	movlw	64
  2158  000480  EC70  F009         	call	_storeAButton
  2159                           
  2160                           ;buttons.c: 239: storeAButton( 0x41, 0x21 );
  2161  000484  0E21               	movlw	33
  2162  000486  0100               	movlb	0	; () banked
  2163  000488  6FBE               	movwf	storeAButton@program& (0+255),b
  2164  00048A  0E41               	movlw	65
  2165  00048C  EC70  F009         	call	_storeAButton
  2166                           
  2167                           ;buttons.c: 240: storeAButton( 0x42, 0x22 );
  2168  000490  0E22               	movlw	34
  2169  000492  0100               	movlb	0	; () banked
  2170  000494  6FBE               	movwf	storeAButton@program& (0+255),b
  2171  000496  0E42               	movlw	66
  2172  000498  EC70  F009         	call	_storeAButton
  2173                           
  2174                           ;buttons.c: 241: storeAButton( 0x43, 0x23 );
  2175  00049C  0E23               	movlw	35
  2176  00049E  0100               	movlb	0	; () banked
  2177  0004A0  6FBE               	movwf	storeAButton@program& (0+255),b
  2178  0004A2  0E43               	movlw	67
  2179  0004A4  EC70  F009         	call	_storeAButton
  2180  0004A8  0012               	return	
  2181  0004AA                     __end_of_initFlashButtonMatrix:
  2182                           	opt stack 0
  2183                           tblptru	equ	0xFF8
  2184                           prodh	equ	0xFF4
  2185                           prodl	equ	0xFF3
  2186                           intcon	equ	0xFF2
  2187                           postinc0	equ	0xFEE
  2188                           wreg	equ	0xFE8
  2189                           postdec1	equ	0xFE5
  2190                           fsr1h	equ	0xFE2
  2191                           fsr1l	equ	0xFE1
  2192                           indf2	equ	0xFDF
  2193                           fsr2h	equ	0xFDA
  2194                           fsr2l	equ	0xFD9
  2195                           status	equ	0xFD8
  2196                           
  2197 ;; *************** function _storeAButton *****************
  2198 ;; Defined at:
  2199 ;;		line 245 in file "buttons.c"
  2200 ;; Parameters:    Size  Location     Type
  2201 ;;  button          1    wreg     unsigned char 
  2202 ;;  program         1   27[BANK0 ] unsigned char 
  2203 ;; Auto vars:     Size  Location     Type
  2204 ;;  button          1   28[BANK0 ] unsigned char 
  2205 ;; Return value:  Size  Location     Type
  2206 ;;		None               void
  2207 ;; Registers used:
  2208 ;;		wreg, status,2, status,0, cstack
  2209 ;; Tracked objects:
  2210 ;;		On entry : 0/0
  2211 ;;		On exit  : 0/0
  2212 ;;		Unchanged: 0/0
  2213 ;; Data sizes:     COMRAM   BANK0   BANK1   BANK2   BANK3   BANK4   BANK5
  2214 ;;      Params:         0       1       0       0       0       0       0
  2215 ;;      Locals:         0       1       0       0       0       0       0
  2216 ;;      Temps:          0       0       0       0       0       0       0
  2217 ;;      Totals:         0       2       0       0       0       0       0
  2218 ;;Total ram usage:        2 bytes
  2219 ;; Hardware stack levels used:    1
  2220 ;; Hardware stack levels required when called:   11
  2221 ;; This function calls:
  2222 ;;		_HDByteWriteI2C
  2223 ;; This function is called by:
  2224 ;;		_initFlashButtonMatrix
  2225 ;; This function uses a non-reentrant model
  2226 ;;
  2227                           
  2228                           	psect	text11
  2229  0012E0                     __ptext11:
  2230                           	opt stack 0
  2231  0012E0                     _storeAButton:
  2232                           	opt stack 17
  2233                           
  2234                           ;incstack = 0
  2235                           ;storeAButton@button stored from wreg
  2236  0012E0  0100               	movlb	0	; () banked
  2237  0012E2  6FBF               	movwf	storeAButton@button& (0+255),b
  2238                           
  2239                           ; BSR set to: 0
  2240                           ;buttons.c: 246: HDByteWriteI2C(0xA0, 0, button, program );
  2241  0012E4  0E00               	movlw	0
  2242  0012E6  0100               	movlb	0	; () banked
  2243  0012E8  6FB9               	movwf	HDByteWriteI2C@HighAdd& (0+255),b
  2244  0012EA  C0BF  F0BA         	movff	storeAButton@button,HDByteWriteI2C@LowAdd
  2245  0012EE  C0BE  F0BB         	movff	storeAButton@program,HDByteWriteI2C@data
  2246  0012F2  0EA0               	movlw	160
  2247  0012F4  ECD5  F002         	call	_HDByteWriteI2C
  2248  0012F8  0012               	return	
  2249  0012FA                     __end_of_storeAButton:
  2250                           	opt stack 0
  2251                           tblptru	equ	0xFF8
  2252                           prodh	equ	0xFF4
  2253                           prodl	equ	0xFF3
  2254                           intcon	equ	0xFF2
  2255                           postinc0	equ	0xFEE
  2256                           wreg	equ	0xFE8
  2257                           postdec1	equ	0xFE5
  2258                           fsr1h	equ	0xFE2
  2259                           fsr1l	equ	0xFE1
  2260                           indf2	equ	0xFDF
  2261                           fsr2h	equ	0xFDA
  2262                           fsr2l	equ	0xFD9
  2263                           status	equ	0xFD8
  2264                           
  2265 ;; *************** function _HDByteWriteI2C *****************
  2266 ;; Defined at:
  2267 ;;		line 43 in file "massStorage.c"
  2268 ;; Parameters:    Size  Location     Type
  2269 ;;  ControlByte     1    wreg     unsigned char 
  2270 ;;  HighAdd         1   22[BANK0 ] unsigned char 
  2271 ;;  LowAdd          1   23[BANK0 ] unsigned char 
  2272 ;;  data            1   24[BANK0 ] unsigned char 
  2273 ;; Auto vars:     Size  Location     Type
  2274 ;;  ControlByte     1   26[BANK0 ] unsigned char 
  2275 ;; Return value:  Size  Location     Type
  2276 ;;                  1    wreg      unsigned char 
  2277 ;; Registers used:
  2278 ;;		wreg, status,2, status,0, cstack
  2279 ;; Tracked objects:
  2280 ;;		On entry : 0/0
  2281 ;;		On exit  : 0/0
  2282 ;;		Unchanged: 0/0
  2283 ;; Data sizes:     COMRAM   BANK0   BANK1   BANK2   BANK3   BANK4   BANK5
  2284 ;;      Params:         0       3       0       0       0       0       0
  2285 ;;      Locals:         0       1       0       0       0       0       0
  2286 ;;      Temps:          0       1       0       0       0       0       0
  2287 ;;      Totals:         0       5       0       0       0       0       0
  2288 ;;Total ram usage:        5 bytes
  2289 ;; Hardware stack levels used:    1
  2290 ;; Hardware stack levels required when called:   10
  2291 ;; This function calls:
  2292 ;;		_EEAckPolling1
  2293 ;;		_WriteI2C1
  2294 ;; This function is called by:
  2295 ;;		_storeAButton
  2296 ;;		_storeASceneChannel
  2297 ;;		_writeTestPattern
  2298 ;; This function uses a non-reentrant model
  2299 ;;
  2300                           
  2301                           	psect	text12
  2302  0005AA                     __ptext12:
  2303                           	opt stack 0
  2304  0005AA                     _HDByteWriteI2C:
  2305                           	opt stack 17
  2306                           
  2307                           ;incstack = 0
  2308                           ;HDByteWriteI2C@ControlByte stored from wreg
  2309  0005AA  0100               	movlb	0	; () banked
  2310  0005AC  6FBD               	movwf	HDByteWriteI2C@ControlByte& (0+255),b
  2311  0005AE                     l2720:
  2312                           
  2313                           ; BSR set to: 0
  2314  0005AE  A4C7               	btfss	4039,2,c	;volatile
  2315  0005B0  D004               	goto	u3920
  2316  0005B2  0100               	movlb	0	; () banked
  2317  0005B4  6BBC               	clrf	??_HDByteWriteI2C& (0+255),b
  2318  0005B6  2BBC               	incf	??_HDByteWriteI2C& (0+255),f,b
  2319  0005B8  D002               	goto	u3928
  2320  0005BA                     u3920:
  2321  0005BA  0100               	movlb	0	; () banked
  2322  0005BC  6BBC               	clrf	??_HDByteWriteI2C& (0+255),b
  2323  0005BE                     u3928:
  2324  0005BE  50C5               	movf	4037,w,c	;volatile
  2325  0005C0  0B1F               	andlw	31
  2326  0005C2  0100               	movlb	0	; () banked
  2327  0005C4  11BC               	iorwf	??_HDByteWriteI2C& (0+255),w,b
  2328  0005C6  0900               	iorlw	0
  2329  0005C8  A4D8               	btfss	status,2,c
  2330  0005CA  D7F1               	goto	l2720
  2331                           
  2332                           ; BSR set to: 0
  2333                           ;massStorage.c: 46: SSP1CON2bits.SEN=1;while(SSP1CON2bits.SEN);
  2334  0005CC  80C5               	bsf	4037,0,c	;volatile
  2335  0005CE                     l346:
  2336                           
  2337                           ; BSR set to: 0
  2338  0005CE  B0C5               	btfsc	4037,0,c	;volatile
  2339  0005D0  D7FE               	goto	l346
  2340  0005D2                     l349:
  2341                           
  2342                           ; BSR set to: 0
  2343  0005D2  B0C5               	btfsc	4037,0,c	;volatile
  2344  0005D4  D7FE               	goto	l349
  2345                           
  2346                           ; BSR set to: 0
  2347                           ;massStorage.c: 49: WriteI2C1( ControlByte );
  2348                           
  2349                           ; BSR set to: 0
  2350  0005D6  0100               	movlb	0	; () banked
  2351  0005D8  51BD               	movf	HDByteWriteI2C@ControlByte& (0+255),w,b
  2352  0005DA  EC66  F004         	call	_WriteI2C1
  2353  0005DE                     l2724:
  2354  0005DE  A4C7               	btfss	4039,2,c	;volatile
  2355  0005E0  D004               	goto	u3960
  2356  0005E2  0100               	movlb	0	; () banked
  2357  0005E4  6BBC               	clrf	??_HDByteWriteI2C& (0+255),b
  2358  0005E6  2BBC               	incf	??_HDByteWriteI2C& (0+255),f,b
  2359  0005E8  D002               	goto	u3968
  2360  0005EA                     u3960:
  2361  0005EA  0100               	movlb	0	; () banked
  2362  0005EC  6BBC               	clrf	??_HDByteWriteI2C& (0+255),b
  2363  0005EE                     u3968:
  2364  0005EE  50C5               	movf	4037,w,c	;volatile
  2365  0005F0  0B1F               	andlw	31
  2366  0005F2  0100               	movlb	0	; () banked
  2367  0005F4  11BC               	iorwf	??_HDByteWriteI2C& (0+255),w,b
  2368  0005F6  0900               	iorlw	0
  2369  0005F8  A4D8               	btfss	status,2,c
  2370  0005FA  D7F1               	goto	l2724
  2371                           
  2372                           ; BSR set to: 0
  2373                           ;massStorage.c: 51: WriteI2C1( HighAdd );
  2374                           
  2375                           ; BSR set to: 0
  2376  0005FC  0100               	movlb	0	; () banked
  2377  0005FE  51B9               	movf	HDByteWriteI2C@HighAdd& (0+255),w,b
  2378  000600  EC66  F004         	call	_WriteI2C1
  2379  000604                     l2728:
  2380  000604  A4C7               	btfss	4039,2,c	;volatile
  2381  000606  D004               	goto	u3980
  2382  000608  0100               	movlb	0	; () banked
  2383  00060A  6BBC               	clrf	??_HDByteWriteI2C& (0+255),b
  2384  00060C  2BBC               	incf	??_HDByteWriteI2C& (0+255),f,b
  2385  00060E  D002               	goto	u3988
  2386  000610                     u3980:
  2387  000610  0100               	movlb	0	; () banked
  2388  000612  6BBC               	clrf	??_HDByteWriteI2C& (0+255),b
  2389  000614                     u3988:
  2390  000614  50C5               	movf	4037,w,c	;volatile
  2391  000616  0B1F               	andlw	31
  2392  000618  0100               	movlb	0	; () banked
  2393  00061A  11BC               	iorwf	??_HDByteWriteI2C& (0+255),w,b
  2394  00061C  0900               	iorlw	0
  2395  00061E  A4D8               	btfss	status,2,c
  2396  000620  D7F1               	goto	l2728
  2397                           
  2398                           ; BSR set to: 0
  2399                           ;massStorage.c: 53: WriteI2C1( LowAdd );
  2400                           
  2401                           ; BSR set to: 0
  2402  000622  0100               	movlb	0	; () banked
  2403  000624  51BA               	movf	HDByteWriteI2C@LowAdd& (0+255),w,b
  2404  000626  EC66  F004         	call	_WriteI2C1
  2405  00062A                     l2732:
  2406  00062A  A4C7               	btfss	4039,2,c	;volatile
  2407  00062C  D004               	goto	u4000
  2408  00062E  0100               	movlb	0	; () banked
  2409  000630  6BBC               	clrf	??_HDByteWriteI2C& (0+255),b
  2410  000632  2BBC               	incf	??_HDByteWriteI2C& (0+255),f,b
  2411  000634  D002               	goto	u4008
  2412  000636                     u4000:
  2413  000636  0100               	movlb	0	; () banked
  2414  000638  6BBC               	clrf	??_HDByteWriteI2C& (0+255),b
  2415  00063A                     u4008:
  2416  00063A  50C5               	movf	4037,w,c	;volatile
  2417  00063C  0B1F               	andlw	31
  2418  00063E  0100               	movlb	0	; () banked
  2419  000640  11BC               	iorwf	??_HDByteWriteI2C& (0+255),w,b
  2420  000642  0900               	iorlw	0
  2421  000644  A4D8               	btfss	status,2,c
  2422  000646  D7F1               	goto	l2732
  2423                           
  2424                           ; BSR set to: 0
  2425                           ;massStorage.c: 55: WriteI2C1 ( data );
  2426                           
  2427                           ; BSR set to: 0
  2428  000648  0100               	movlb	0	; () banked
  2429  00064A  51BB               	movf	HDByteWriteI2C@data& (0+255),w,b
  2430  00064C  EC66  F004         	call	_WriteI2C1
  2431  000650                     l2736:
  2432  000650  A4C7               	btfss	4039,2,c	;volatile
  2433  000652  D004               	goto	u4020
  2434  000654  0100               	movlb	0	; () banked
  2435  000656  6BBC               	clrf	??_HDByteWriteI2C& (0+255),b
  2436  000658  2BBC               	incf	??_HDByteWriteI2C& (0+255),f,b
  2437  00065A  D002               	goto	u4028
  2438  00065C                     u4020:
  2439  00065C  0100               	movlb	0	; () banked
  2440  00065E  6BBC               	clrf	??_HDByteWriteI2C& (0+255),b
  2441  000660                     u4028:
  2442  000660  50C5               	movf	4037,w,c	;volatile
  2443  000662  0B1F               	andlw	31
  2444  000664  0100               	movlb	0	; () banked
  2445  000666  11BC               	iorwf	??_HDByteWriteI2C& (0+255),w,b
  2446  000668  0900               	iorlw	0
  2447  00066A  A4D8               	btfss	status,2,c
  2448  00066C  D7F1               	goto	l2736
  2449                           
  2450                           ; BSR set to: 0
  2451                           ;massStorage.c: 57: SSP1CON2bits.PEN=1;while(SSP1CON2bits.PEN);
  2452  00066E  84C5               	bsf	4037,2,c	;volatile
  2453  000670                     l364:
  2454                           
  2455                           ; BSR set to: 0
  2456  000670  B4C5               	btfsc	4037,2,c	;volatile
  2457  000672  D7FE               	goto	l364
  2458  000674                     l367:
  2459                           
  2460                           ; BSR set to: 0
  2461  000674  B4C5               	btfsc	4037,2,c	;volatile
  2462  000676  D7FE               	goto	l367
  2463  000678                     l2738:
  2464  000678  0100               	movlb	0	; () banked
  2465  00067A  51BD               	movf	HDByteWriteI2C@ControlByte& (0+255),w,b
  2466  00067C  EC07  F005         	call	_EEAckPolling1
  2467  000680  0900               	iorlw	0
  2468  000682  B4D8               	btfsc	status,2,c
  2469                           
  2470                           ;massStorage.c: 62: return 0;
  2471                           ;	Return value of _HDByteWriteI2C is never used
  2472  000684  0012               	return	
  2473  000686  D7F8               	goto	l2738
  2474  000688                     __end_of_HDByteWriteI2C:
  2475                           	opt stack 0
  2476                           tblptru	equ	0xFF8
  2477                           prodh	equ	0xFF4
  2478                           prodl	equ	0xFF3
  2479                           intcon	equ	0xFF2
  2480                           postinc0	equ	0xFEE
  2481                           wreg	equ	0xFE8
  2482                           postdec1	equ	0xFE5
  2483                           fsr1h	equ	0xFE2
  2484                           fsr1l	equ	0xFE1
  2485                           indf2	equ	0xFDF
  2486                           fsr2h	equ	0xFDA
  2487                           fsr2l	equ	0xFD9
  2488                           status	equ	0xFD8
  2489                           
  2490 ;; *************** function _EEAckPolling1 *****************
  2491 ;; Defined at:
  2492 ;;		line 15 in file "C:\Program Files (x86)\Microchip\xc8\v1.32\sources\pic18\plib\i2c\i2c1eeap.c"
  2493 ;; Parameters:    Size  Location     Type
  2494 ;;  control         1    wreg     unsigned char 
  2495 ;; Auto vars:     Size  Location     Type
  2496 ;;  control         1   21[BANK0 ] unsigned char 
  2497 ;; Return value:  Size  Location     Type
  2498 ;;                  1    wreg      char 
  2499 ;; Registers used:
  2500 ;;		wreg, status,2, status,0, cstack
  2501 ;; Tracked objects:
  2502 ;;		On entry : 0/0
  2503 ;;		On exit  : 0/0
  2504 ;;		Unchanged: 0/0
  2505 ;; Data sizes:     COMRAM   BANK0   BANK1   BANK2   BANK3   BANK4   BANK5
  2506 ;;      Params:         0       0       0       0       0       0       0
  2507 ;;      Locals:         0       1       0       0       0       0       0
  2508 ;;      Temps:          0       1       0       0       0       0       0
  2509 ;;      Totals:         0       2       0       0       0       0       0
  2510 ;;Total ram usage:        2 bytes
  2511 ;; Hardware stack levels used:    1
  2512 ;; Hardware stack levels required when called:    9
  2513 ;; This function calls:
  2514 ;;		_WriteI2C1
  2515 ;; This function is called by:
  2516 ;;		_HDByteWriteI2C
  2517 ;;		_LDByteWriteI2C
  2518 ;; This function uses a non-reentrant model
  2519 ;;
  2520                           
  2521                           	psect	text13
  2522  000A0E                     __ptext13:
  2523                           	opt stack 0
  2524  000A0E                     _EEAckPolling1:
  2525                           	opt stack 17
  2526                           
  2527                           ;incstack = 0
  2528                           ;EEAckPolling1@control stored from wreg
  2529  000A0E  0100               	movlb	0	; () banked
  2530  000A10  6FB8               	movwf	EEAckPolling1@control& (0+255),b
  2531  000A12                     l2632:
  2532                           
  2533                           ; BSR set to: 0
  2534  000A12  A4C7               	btfss	4039,2,c	;volatile
  2535  000A14  D004               	goto	u3650
  2536  000A16  0100               	movlb	0	; () banked
  2537  000A18  6BB7               	clrf	??_EEAckPolling1& (0+255),b
  2538  000A1A  2BB7               	incf	??_EEAckPolling1& (0+255),f,b
  2539  000A1C  D002               	goto	u3658
  2540  000A1E                     u3650:
  2541  000A1E  0100               	movlb	0	; () banked
  2542  000A20  6BB7               	clrf	??_EEAckPolling1& (0+255),b
  2543  000A22                     u3658:
  2544  000A22  50C5               	movf	4037,w,c	;volatile
  2545  000A24  0B1F               	andlw	31
  2546  000A26  0100               	movlb	0	; () banked
  2547  000A28  11B7               	iorwf	??_EEAckPolling1& (0+255),w,b
  2548  000A2A  0900               	iorlw	0
  2549  000A2C  A4D8               	btfss	status,2,c
  2550  000A2E  D7F1               	goto	l2632
  2551                           
  2552                           ; BSR set to: 0
  2553  000A30  80C5               	bsf	4037,0,c	;volatile
  2554  000A32                     l521:
  2555                           
  2556                           ; BSR set to: 0
  2557  000A32  B0C5               	btfsc	4037,0,c	;volatile
  2558  000A34  D7FE               	goto	l521
  2559  000A36                     l524:
  2560                           
  2561                           ; BSR set to: 0
  2562  000A36  B0C5               	btfsc	4037,0,c	;volatile
  2563  000A38  D7FE               	goto	l524
  2564                           
  2565                           ; BSR set to: 0
  2566  000A3A  A6A1               	btfss	4001,3,c	;volatile
  2567  000A3C  D002               	goto	l2640
  2568                           
  2569                           ; BSR set to: 0
  2570  000A3E  0EFF               	movlw	255
  2571  000A40  0012               	return	
  2572  000A42                     l2640:
  2573                           
  2574                           ; BSR set to: 0
  2575  000A42  0100               	movlb	0	; () banked
  2576  000A44  51B8               	movf	EEAckPolling1@control& (0+255),w,b
  2577  000A46  EC66  F004         	call	_WriteI2C1
  2578  000A4A  0100               	movlb	0	; () banked
  2579  000A4C  6FB7               	movwf	??_EEAckPolling1& (0+255),b
  2580  000A4E  0100               	movlb	0	; () banked
  2581  000A50  29B7               	incf	??_EEAckPolling1& (0+255),w,b
  2582  000A52  A4D8               	btfss	status,2,c
  2583  000A54  D01D               	goto	l534
  2584                           
  2585                           ; BSR set to: 0
  2586  000A56  84C5               	bsf	4037,2,c	;volatile
  2587  000A58                     l531:
  2588                           
  2589                           ; BSR set to: 0
  2590  000A58  B4C5               	btfsc	4037,2,c	;volatile
  2591  000A5A  D7FE               	goto	l531
  2592                           
  2593                           ; BSR set to: 0
  2594                           
  2595                           ; BSR set to: 0
  2596  000A5C  0EFD               	movlw	253
  2597  000A5E  0012               	return	
  2598  000A60                     l535:
  2599                           
  2600                           ; BSR set to: 0
  2601  000A60  82C5               	bsf	4037,1,c	;volatile
  2602  000A62                     l536:
  2603                           
  2604                           ; BSR set to: 0
  2605  000A62  B2C5               	btfsc	4037,1,c	;volatile
  2606  000A64  D7FE               	goto	l536
  2607  000A66                     l539:
  2608                           
  2609                           ; BSR set to: 0
  2610  000A66  B2C5               	btfsc	4037,1,c	;volatile
  2611  000A68  D7FE               	goto	l539
  2612                           
  2613                           ; BSR set to: 0
  2614  000A6A  A6A1               	btfss	4001,3,c	;volatile
  2615  000A6C  D002               	goto	l2652
  2616                           
  2617                           ; BSR set to: 0
  2618  000A6E  0EFF               	movlw	255
  2619  000A70  0012               	return	
  2620  000A72                     l2652:
  2621                           
  2622                           ; BSR set to: 0
  2623  000A72  0100               	movlb	0	; () banked
  2624  000A74  51B8               	movf	EEAckPolling1@control& (0+255),w,b
  2625  000A76  EC66  F004         	call	_WriteI2C1
  2626  000A7A  0100               	movlb	0	; () banked
  2627  000A7C  6FB7               	movwf	??_EEAckPolling1& (0+255),b
  2628  000A7E  0100               	movlb	0	; () banked
  2629  000A80  29B7               	incf	??_EEAckPolling1& (0+255),w,b
  2630  000A82  A4D8               	btfss	status,2,c
  2631  000A84  D005               	goto	l534
  2632                           
  2633                           ; BSR set to: 0
  2634  000A86  84C5               	bsf	4037,2,c	;volatile
  2635  000A88                     l544:
  2636                           
  2637                           ; BSR set to: 0
  2638  000A88  B4C5               	btfsc	4037,2,c	;volatile
  2639  000A8A  D7FE               	goto	l544
  2640                           
  2641                           ; BSR set to: 0
  2642                           
  2643                           ; BSR set to: 0
  2644  000A8C  0EFD               	movlw	253
  2645  000A8E  0012               	return	
  2646  000A90                     l534:
  2647                           
  2648                           ; BSR set to: 0
  2649  000A90  BCC5               	btfsc	4037,6,c	;volatile
  2650  000A92  D7E6               	goto	l535
  2651                           
  2652                           ; BSR set to: 0
  2653                           
  2654                           ; BSR set to: 0
  2655  000A94  84C5               	bsf	4037,2,c	;volatile
  2656  000A96                     l548:
  2657                           
  2658                           ; BSR set to: 0
  2659  000A96  B4C5               	btfsc	4037,2,c	;volatile
  2660  000A98  D7FE               	goto	l548
  2661  000A9A                     l551:
  2662                           
  2663                           ; BSR set to: 0
  2664  000A9A  B4C5               	btfsc	4037,2,c	;volatile
  2665  000A9C  D7FE               	goto	l551
  2666                           
  2667                           ; BSR set to: 0
  2668  000A9E  A6A1               	btfss	4001,3,c	;volatile
  2669  000AA0  D002               	goto	l2664
  2670                           
  2671                           ; BSR set to: 0
  2672  000AA2  0EFF               	movlw	255
  2673  000AA4  0012               	return	
  2674  000AA6                     l2664:
  2675                           
  2676                           ; BSR set to: 0
  2677  000AA6  0E00               	movlw	0
  2678  000AA8  0012               	return	
  2679  000AAA                     __end_of_EEAckPolling1:
  2680                           	opt stack 0
  2681                           tblptru	equ	0xFF8
  2682                           prodh	equ	0xFF4
  2683                           prodl	equ	0xFF3
  2684                           intcon	equ	0xFF2
  2685                           postinc0	equ	0xFEE
  2686                           wreg	equ	0xFE8
  2687                           postdec1	equ	0xFE5
  2688                           fsr1h	equ	0xFE2
  2689                           fsr1l	equ	0xFE1
  2690                           indf2	equ	0xFDF
  2691                           fsr2h	equ	0xFDA
  2692                           fsr2l	equ	0xFD9
  2693                           status	equ	0xFD8
  2694                           
  2695 ;; *************** function _initDMXSend *****************
  2696 ;; Defined at:
  2697 ;;		line 28 in file "dmx.c"
  2698 ;; Parameters:    Size  Location     Type
  2699 ;;		None
  2700 ;; Auto vars:     Size  Location     Type
  2701 ;;		None
  2702 ;; Return value:  Size  Location     Type
  2703 ;;		None               void
  2704 ;; Registers used:
  2705 ;;		wreg, status,2
  2706 ;; Tracked objects:
  2707 ;;		On entry : 0/0
  2708 ;;		On exit  : 0/0
  2709 ;;		Unchanged: 0/0
  2710 ;; Data sizes:     COMRAM   BANK0   BANK1   BANK2   BANK3   BANK4   BANK5
  2711 ;;      Params:         0       0       0       0       0       0       0
  2712 ;;      Locals:         0       0       0       0       0       0       0
  2713 ;;      Temps:          0       0       0       0       0       0       0
  2714 ;;      Totals:         0       0       0       0       0       0       0
  2715 ;;Total ram usage:        0 bytes
  2716 ;; Hardware stack levels used:    1
  2717 ;; Hardware stack levels required when called:    8
  2718 ;; This function calls:
  2719 ;;		Nothing
  2720 ;; This function is called by:
  2721 ;;		_main
  2722 ;; This function uses a non-reentrant model
  2723 ;;
  2724                           
  2725                           	psect	text14
  2726  00127E                     __ptext14:
  2727                           	opt stack 0
  2728  00127E                     _initDMXSend:
  2729                           	opt stack 21
  2730                           
  2731                           ;dmx.c: 32: T1CON = 0;
  2732                           
  2733                           ; BSR set to: 0
  2734                           ;incstack = 0
  2735  00127E  0E00               	movlw	0
  2736  001280  6ECD               	movwf	4045,c	;volatile
  2737                           
  2738                           ;dmx.c: 33: T1CONbits.TMR1CS = 0;
  2739  001282  0E3F               	movlw	-193
  2740  001284  16CD               	andwf	4045,f,c	;volatile
  2741                           
  2742                           ;dmx.c: 34: T1CONbits.T1CKPS = 2;
  2743  001286  50CD               	movf	4045,w,c	;volatile
  2744  001288  0BCF               	andlw	-49
  2745  00128A  0920               	iorlw	32
  2746  00128C  6ECD               	movwf	4045,c	;volatile
  2747                           
  2748                           ;dmx.c: 35: T1CONbits.TMR1ON = 1;
  2749  00128E  80CD               	bsf	4045,0,c	;volatile
  2750                           
  2751                           ;dmx.c: 37: IPR1bits.TMR1IP = 0;
  2752  001290  909F               	bcf	3999,0,c	;volatile
  2753                           
  2754                           ;dmx.c: 38: PIE1bits.TMR1IE = 1;
  2755  001292  809D               	bsf	3997,0,c	;volatile
  2756                           
  2757                           ;dmx.c: 43: BAUDCONbits.BRG16 = 1;
  2758  001294  86B8               	bsf	4024,3,c	;volatile
  2759                           
  2760                           ;dmx.c: 44: BAUDCONbits.CKTXP = 1;
  2761  001296  88B8               	bsf	4024,4,c	;volatile
  2762                           
  2763                           ;dmx.c: 46: SPBRG1 = 1;
  2764  001298  0E01               	movlw	1
  2765  00129A  6EAF               	movwf	4015,c	;volatile
  2766                           
  2767                           ;dmx.c: 47: SPBRGH = 0;
  2768  00129C  0E00               	movlw	0
  2769  00129E  6EB0               	movwf	4016,c	;volatile
  2770  0012A0  0012               	return	
  2771  0012A2                     __end_of_initDMXSend:
  2772                           	opt stack 0
  2773                           tblptru	equ	0xFF8
  2774                           prodh	equ	0xFF4
  2775                           prodl	equ	0xFF3
  2776                           intcon	equ	0xFF2
  2777                           postinc0	equ	0xFEE
  2778                           wreg	equ	0xFE8
  2779                           postdec1	equ	0xFE5
  2780                           fsr1h	equ	0xFE2
  2781                           fsr1l	equ	0xFE1
  2782                           indf2	equ	0xFDF
  2783                           fsr2h	equ	0xFDA
  2784                           fsr2l	equ	0xFD9
  2785                           status	equ	0xFD8
  2786                           
  2787 ;; *************** function _initButtonProtocol *****************
  2788 ;; Defined at:
  2789 ;;		line 17 in file "protocol.c"
  2790 ;; Parameters:    Size  Location     Type
  2791 ;;		None
  2792 ;; Auto vars:     Size  Location     Type
  2793 ;;		None
  2794 ;; Return value:  Size  Location     Type
  2795 ;;		None               void
  2796 ;; Registers used:
  2797 ;;		wreg, status,2
  2798 ;; Tracked objects:
  2799 ;;		On entry : 0/0
  2800 ;;		On exit  : 0/0
  2801 ;;		Unchanged: 0/0
  2802 ;; Data sizes:     COMRAM   BANK0   BANK1   BANK2   BANK3   BANK4   BANK5
  2803 ;;      Params:         0       0       0       0       0       0       0
  2804 ;;      Locals:         0       0       0       0       0       0       0
  2805 ;;      Temps:          0       0       0       0       0       0       0
  2806 ;;      Totals:         0       0       0       0       0       0       0
  2807 ;;Total ram usage:        0 bytes
  2808 ;; Hardware stack levels used:    1
  2809 ;; Hardware stack levels required when called:    8
  2810 ;; This function calls:
  2811 ;;		Nothing
  2812 ;; This function is called by:
  2813 ;;		_main
  2814 ;; This function uses a non-reentrant model
  2815 ;;
  2816                           
  2817                           	psect	text15
  2818  00132A                     __ptext15:
  2819                           	opt stack 0
  2820  00132A                     _initButtonProtocol:
  2821                           	opt stack 21
  2822                           
  2823                           ;protocol.c: 19: protocolState = 0;
  2824                           
  2825                           ;incstack = 0
  2826  00132A  0E00               	movlw	0
  2827  00132C  0100               	movlb	0	; () banked
  2828  00132E  6FA2               	movwf	_protocolState& (0+255),b
  2829                           
  2830                           ; BSR set to: 0
  2831  001330  0012               	return	
  2832  001332                     __end_of_initButtonProtocol:
  2833                           	opt stack 0
  2834                           tblptru	equ	0xFF8
  2835                           prodh	equ	0xFF4
  2836                           prodl	equ	0xFF3
  2837                           intcon	equ	0xFF2
  2838                           postinc0	equ	0xFEE
  2839                           wreg	equ	0xFE8
  2840                           postdec1	equ	0xFE5
  2841                           fsr1h	equ	0xFE2
  2842                           fsr1l	equ	0xFE1
  2843                           indf2	equ	0xFDF
  2844                           fsr2h	equ	0xFDA
  2845                           fsr2l	equ	0xFD9
  2846                           status	equ	0xFD8
  2847                           
  2848 ;; *************** function _initButtonHardware *****************
  2849 ;; Defined at:
  2850 ;;		line 27 in file "buttons.c"
  2851 ;; Parameters:    Size  Location     Type
  2852 ;;		None
  2853 ;; Auto vars:     Size  Location     Type
  2854 ;;		None
  2855 ;; Return value:  Size  Location     Type
  2856 ;;		None               void
  2857 ;; Registers used:
  2858 ;;		wreg, status,2
  2859 ;; Tracked objects:
  2860 ;;		On entry : 0/0
  2861 ;;		On exit  : 0/0
  2862 ;;		Unchanged: 0/0
  2863 ;; Data sizes:     COMRAM   BANK0   BANK1   BANK2   BANK3   BANK4   BANK5
  2864 ;;      Params:         0       0       0       0       0       0       0
  2865 ;;      Locals:         0       0       0       0       0       0       0
  2866 ;;      Temps:          0       0       0       0       0       0       0
  2867 ;;      Totals:         0       0       0       0       0       0       0
  2868 ;;Total ram usage:        0 bytes
  2869 ;; Hardware stack levels used:    1
  2870 ;; Hardware stack levels required when called:    8
  2871 ;; This function calls:
  2872 ;;		Nothing
  2873 ;; This function is called by:
  2874 ;;		_main
  2875 ;; This function uses a non-reentrant model
  2876 ;;
  2877                           
  2878                           	psect	text16
  2879  001112                     __ptext16:
  2880                           	opt stack 0
  2881  001112                     _initButtonHardware:
  2882                           	opt stack 21
  2883                           
  2884                           ;buttons.c: 33: TRISDbits.TRISD7 |= 1;
  2885                           
  2886                           ; BSR set to: 0
  2887                           ;incstack = 0
  2888  001112  8E95               	bsf	3989,7,c	;volatile
  2889                           
  2890                           ;buttons.c: 35: RCSTA2 = 0;
  2891  001114  0E00               	movlw	0
  2892  001116  6E71               	movwf	3953,c	;volatile
  2893                           
  2894                           ;buttons.c: 37: RCSTA2bits.SPEN = 1;
  2895  001118  8E71               	bsf	3953,7,c	;volatile
  2896                           
  2897                           ;buttons.c: 38: RCSTA2bits.CREN = 1;
  2898  00111A  8871               	bsf	3953,4,c	;volatile
  2899                           
  2900                           ;buttons.c: 40: SPBRG2 = 7;
  2901  00111C  0E07               	movlw	7
  2902  00111E  6E75               	movwf	3957,c	;volatile
  2903                           
  2904                           ;buttons.c: 42: IPR3bits.RC2IP = 1;
  2905  001120  8AA5               	bsf	4005,5,c	;volatile
  2906                           
  2907                           ;buttons.c: 43: PIE3bits.RC2IE = 1;
  2908  001122  8AA3               	bsf	4003,5,c	;volatile
  2909                           
  2910                           ;buttons.c: 52: T0CONbits.TMR0ON = 0;
  2911  001124  9ED5               	bcf	4053,7,c	;volatile
  2912                           
  2913                           ;buttons.c: 54: TMR0H = 0;
  2914  001126  0E00               	movlw	0
  2915  001128  6ED7               	movwf	4055,c	;volatile
  2916                           
  2917                           ;buttons.c: 55: TMR0L = 0;
  2918  00112A  0E00               	movlw	0
  2919  00112C  6ED6               	movwf	4054,c	;volatile
  2920                           
  2921                           ;buttons.c: 56: INTCONbits.TMR0IF = 0;
  2922  00112E  94F2               	bcf	intcon,2,c	;volatile
  2923                           
  2924                           ;buttons.c: 58: T0CONbits.T08BIT = 0;
  2925  001130  9CD5               	bcf	4053,6,c	;volatile
  2926                           
  2927                           ;buttons.c: 59: T0CONbits.T0CS = 0;
  2928  001132  9AD5               	bcf	4053,5,c	;volatile
  2929                           
  2930                           ;buttons.c: 60: T0CONbits.PSA = 0;
  2931  001134  96D5               	bcf	4053,3,c	;volatile
  2932                           
  2933                           ;buttons.c: 62: T0CONbits.T0PS = 0;
  2934  001136  90D5               	bcf	4053,0,c	;volatile
  2935  001138  92D5               	bcf	4053,1,c	;volatile
  2936  00113A  94D5               	bcf	4053,2,c	;volatile
  2937                           
  2938                           ;buttons.c: 67: RCONbits.IPEN = 1;
  2939  00113C  8ED0               	bsf	4048,7,c	;volatile
  2940                           
  2941                           ;buttons.c: 68: INTCONbits.PEIE = 1;
  2942  00113E  8CF2               	bsf	intcon,6,c	;volatile
  2943                           
  2944                           ;buttons.c: 69: INTCON2bits.TMR0IP = 0;
  2945  001140  94F1               	bcf	intcon2,2,c	;volatile
  2946                           
  2947                           ;buttons.c: 70: INTCONbits.TMR0IE = 1;
  2948  001142  8AF2               	bsf	intcon,5,c	;volatile
  2949                           
  2950                           ;buttons.c: 75: T0CONbits.TMR0ON = 1;
  2951  001144  8ED5               	bsf	4053,7,c	;volatile
  2952  001146  0012               	return	
  2953  001148                     __end_of_initButtonHardware:
  2954                           	opt stack 0
  2955                           tblptru	equ	0xFF8
  2956                           prodh	equ	0xFF4
  2957                           prodl	equ	0xFF3
  2958                           intcon	equ	0xFF2
  2959                           intcon2	equ	0xFF1
  2960                           postinc0	equ	0xFEE
  2961                           wreg	equ	0xFE8
  2962                           postdec1	equ	0xFE5
  2963                           fsr1h	equ	0xFE2
  2964                           fsr1l	equ	0xFE1
  2965                           indf2	equ	0xFDF
  2966                           fsr2h	equ	0xFDA
  2967                           fsr2l	equ	0xFD9
  2968                           status	equ	0xFD8
  2969                           
  2970 ;; *************** function _initAllButtons *****************
  2971 ;; Defined at:
  2972 ;;		line 111 in file "buttons.c"
  2973 ;; Parameters:    Size  Location     Type
  2974 ;;		None
  2975 ;; Auto vars:     Size  Location     Type
  2976 ;;  i               1   34[BANK0 ] unsigned char 
  2977 ;;  buttonProgra    1   33[BANK0 ] unsigned char 
  2978 ;;  buttonIndex     1   32[BANK0 ] unsigned char 
  2979 ;;  buttonNumber    1    0        unsigned char 
  2980 ;; Return value:  Size  Location     Type
  2981 ;;		None               void
  2982 ;; Registers used:
  2983 ;;		wreg, fsr2l, fsr2h, status,2, status,0, prodl, prodh, cstack
  2984 ;; Tracked objects:
  2985 ;;		On entry : 0/0
  2986 ;;		On exit  : 0/0
  2987 ;;		Unchanged: 0/0
  2988 ;; Data sizes:     COMRAM   BANK0   BANK1   BANK2   BANK3   BANK4   BANK5
  2989 ;;      Params:         0       0       0       0       0       0       0
  2990 ;;      Locals:         0       3       0       0       0       0       0
  2991 ;;      Temps:          0       0       0       0       0       0       0
  2992 ;;      Totals:         0       3       0       0       0       0       0
  2993 ;;Total ram usage:        3 bytes
  2994 ;; Hardware stack levels used:    1
  2995 ;; Hardware stack levels required when called:   12
  2996 ;; This function calls:
  2997 ;;		_initButton
  2998 ;;		_readAButton
  2999 ;; This function is called by:
  3000 ;;		_main
  3001 ;; This function uses a non-reentrant model
  3002 ;;
  3003                           
  3004                           	psect	text17
  3005  000FF2                     __ptext17:
  3006                           	opt stack 0
  3007  000FF2                     _initAllButtons:
  3008                           	opt stack 17
  3009                           
  3010                           ;buttons.c: 113: unsigned char buttonIndex = 0;
  3011                           
  3012                           ;incstack = 0
  3013  000FF2  0E00               	movlw	0
  3014  000FF4  0100               	movlb	0	; () banked
  3015  000FF6  6FC3               	movwf	initAllButtons@buttonIndex& (0+255),b
  3016                           
  3017                           ;buttons.c: 114: unsigned char buttonNumber;
  3018                           ;buttons.c: 115: unsigned char buttonProgram;
  3019                           ;buttons.c: 117: unsigned char i;
  3020                           ;buttons.c: 119: for ( i = 0; i < 0xFF; i++) {
  3021  000FF8  0E00               	movlw	0
  3022  000FFA  0100               	movlb	0	; () banked
  3023  000FFC  6FC5               	movwf	initAllButtons@i& (0+255),b
  3024  000FFE                     
  3025                           ; BSR set to: 0
  3026  000FFE  0100               	movlb	0	; () banked
  3027  001000  29C5               	incf	initAllButtons@i& (0+255),w,b
  3028  001002  B4D8               	btfsc	status,2,c
  3029  001004  0012               	return	
  3030                           
  3031                           ; BSR set to: 0
  3032                           ;buttons.c: 120: buttonProgram = readAButton(i );
  3033                           
  3034                           ; BSR set to: 0
  3035                           
  3036                           ; BSR set to: 0
  3037  001006  0100               	movlb	0	; () banked
  3038  001008  51C5               	movf	initAllButtons@i& (0+255),w,b
  3039  00100A  ECBF  F008         	call	_readAButton
  3040  00100E  0100               	movlb	0	; () banked
  3041  001010  6FC4               	movwf	initAllButtons@buttonProgram& (0+255),b
  3042                           
  3043                           ; BSR set to: 0
  3044                           ;buttons.c: 122: if ( buttonProgram != 0) {
  3045  001012  0100               	movlb	0	; () banked
  3046  001014  51C4               	movf	initAllButtons@buttonProgram& (0+255),w,b
  3047  001016  B4D8               	btfsc	status,2,c
  3048  001018  D00A               	goto	l2964
  3049                           
  3050                           ; BSR set to: 0
  3051                           ;buttons.c: 123: initButton(buttonIndex, i, buttonProgram);
  3052  00101A  C0C5  F0B5         	movff	initAllButtons@i,initButton@bn
  3053  00101E  C0C4  F0B6         	movff	initAllButtons@buttonProgram,initButton@bf
  3054  001022  0100               	movlb	0	; () banked
  3055  001024  51C3               	movf	initAllButtons@buttonIndex& (0+255),w,b
  3056  001026  EC62  F006         	call	_initButton
  3057                           
  3058                           ;buttons.c: 124: buttonIndex++;
  3059  00102A  0100               	movlb	0	; () banked
  3060  00102C  2BC3               	incf	initAllButtons@buttonIndex& (0+255),f,b
  3061  00102E                     l2964:
  3062                           
  3063                           ; BSR set to: 0
  3064  00102E  0100               	movlb	0	; () banked
  3065  001030  2BC5               	incf	initAllButtons@i& (0+255),f,b
  3066  001032  D7E5               	goto	L2
  3067  001034                     __end_of_initAllButtons:
  3068                           	opt stack 0
  3069                           tblptru	equ	0xFF8
  3070                           prodh	equ	0xFF4
  3071                           prodl	equ	0xFF3
  3072                           intcon	equ	0xFF2
  3073                           intcon2	equ	0xFF1
  3074                           postinc0	equ	0xFEE
  3075                           wreg	equ	0xFE8
  3076                           postdec1	equ	0xFE5
  3077                           fsr1h	equ	0xFE2
  3078                           fsr1l	equ	0xFE1
  3079                           indf2	equ	0xFDF
  3080                           fsr2h	equ	0xFDA
  3081                           fsr2l	equ	0xFD9
  3082                           status	equ	0xFD8
  3083                           
  3084 ;; *************** function _readAButton *****************
  3085 ;; Defined at:
  3086 ;;		line 249 in file "buttons.c"
  3087 ;; Parameters:    Size  Location     Type
  3088 ;;  button          1    wreg     unsigned char 
  3089 ;; Auto vars:     Size  Location     Type
  3090 ;;  button          1   30[BANK0 ] unsigned char 
  3091 ;;  program         1   31[BANK0 ] unsigned char 
  3092 ;; Return value:  Size  Location     Type
  3093 ;;                  1    wreg      unsigned char 
  3094 ;; Registers used:
  3095 ;;		wreg, fsr2l, fsr2h, status,2, status,0, cstack
  3096 ;; Tracked objects:
  3097 ;;		On entry : 0/0
  3098 ;;		On exit  : 0/0
  3099 ;;		Unchanged: 0/0
  3100 ;; Data sizes:     COMRAM   BANK0   BANK1   BANK2   BANK3   BANK4   BANK5
  3101 ;;      Params:         0       0       0       0       0       0       0
  3102 ;;      Locals:         0       2       0       0       0       0       0
  3103 ;;      Temps:          0       0       0       0       0       0       0
  3104 ;;      Totals:         0       2       0       0       0       0       0
  3105 ;;Total ram usage:        2 bytes
  3106 ;; Hardware stack levels used:    1
  3107 ;; Hardware stack levels required when called:   11
  3108 ;; This function calls:
  3109 ;;		_HDByteReadI2C
  3110 ;; This function is called by:
  3111 ;;		_initAllButtons
  3112 ;; This function uses a non-reentrant model
  3113 ;;
  3114                           
  3115                           	psect	text18
  3116  00117E                     __ptext18:
  3117                           	opt stack 0
  3118  00117E                     _readAButton:
  3119                           	opt stack 17
  3120                           
  3121                           ; BSR set to: 0
  3122                           ;incstack = 0
  3123                           ;readAButton@button stored from wreg
  3124  00117E  0100               	movlb	0	; () banked
  3125  001180  6FC1               	movwf	readAButton@button& (0+255),b
  3126                           
  3127                           ; BSR set to: 0
  3128                           ;buttons.c: 251: unsigned char program;
  3129                           ;buttons.c: 252: HDByteReadI2C( 0xA0,0, button, &program, 1 );
  3130  001182  0E00               	movlw	0
  3131  001184  0100               	movlb	0	; () banked
  3132  001186  6FBA               	movwf	HDByteReadI2C@HighAdd& (0+255),b
  3133  001188  C0C1  F0BB         	movff	readAButton@button,HDByteReadI2C@LowAdd
  3134  00118C  0100               	movlb	0	; () banked
  3135  00118E  0E00               	movlw	high readAButton@program
  3136  001190  0100               	movlb	0	; () banked
  3137  001192  6FBD               	movwf	(HDByteReadI2C@data+1)& (0+255),b
  3138  001194  0100               	movlb	0	; () banked
  3139  001196  0EC2               	movlw	low readAButton@program
  3140  001198  0100               	movlb	0	; () banked
  3141  00119A  6FBC               	movwf	HDByteReadI2C@data& (0+255),b
  3142  00119C  0E01               	movlw	1
  3143  00119E  0100               	movlb	0	; () banked
  3144  0011A0  6FBE               	movwf	HDByteReadI2C@length& (0+255),b
  3145  0011A2  0EA0               	movlw	160
  3146  0011A4  EC55  F002         	call	_HDByteReadI2C
  3147                           
  3148                           ;buttons.c: 253: return program;
  3149  0011A8  0100               	movlb	0	; () banked
  3150  0011AA  51C2               	movf	readAButton@program& (0+255),w,b
  3151  0011AC  0012               	return	
  3152  0011AE                     __end_of_readAButton:
  3153                           	opt stack 0
  3154                           tblptru	equ	0xFF8
  3155                           prodh	equ	0xFF4
  3156                           prodl	equ	0xFF3
  3157                           intcon	equ	0xFF2
  3158                           intcon2	equ	0xFF1
  3159                           postinc0	equ	0xFEE
  3160                           wreg	equ	0xFE8
  3161                           postdec1	equ	0xFE5
  3162                           fsr1h	equ	0xFE2
  3163                           fsr1l	equ	0xFE1
  3164                           indf2	equ	0xFDF
  3165                           fsr2h	equ	0xFDA
  3166                           fsr2l	equ	0xFD9
  3167                           status	equ	0xFD8
  3168                           
  3169 ;; *************** function _HDByteReadI2C *****************
  3170 ;; Defined at:
  3171 ;;		line 80 in file "massStorage.c"
  3172 ;; Parameters:    Size  Location     Type
  3173 ;;  ControlByte     1    wreg     unsigned char 
  3174 ;;  HighAdd         1   23[BANK0 ] unsigned char 
  3175 ;;  LowAdd          1   24[BANK0 ] unsigned char 
  3176 ;;  data            2   25[BANK0 ] PTR unsigned char 
  3177 ;;		 -> readTestPattern@r(32), doDimStep@sc(3), readAButton@program(1), 
  3178 ;;  length          1   27[BANK0 ] unsigned char 
  3179 ;; Auto vars:     Size  Location     Type
  3180 ;;  ControlByte     1   29[BANK0 ] unsigned char 
  3181 ;; Return value:  Size  Location     Type
  3182 ;;                  1    wreg      unsigned char 
  3183 ;; Registers used:
  3184 ;;		wreg, fsr2l, fsr2h, status,2, status,0, cstack
  3185 ;; Tracked objects:
  3186 ;;		On entry : 0/0
  3187 ;;		On exit  : 0/0
  3188 ;;		Unchanged: 0/0
  3189 ;; Data sizes:     COMRAM   BANK0   BANK1   BANK2   BANK3   BANK4   BANK5
  3190 ;;      Params:         0       5       0       0       0       0       0
  3191 ;;      Locals:         0       1       0       0       0       0       0
  3192 ;;      Temps:          0       1       0       0       0       0       0
  3193 ;;      Totals:         0       7       0       0       0       0       0
  3194 ;;Total ram usage:        7 bytes
  3195 ;; Hardware stack levels used:    1
  3196 ;; Hardware stack levels required when called:   10
  3197 ;; This function calls:
  3198 ;;		_WriteI2C1
  3199 ;;		_getsI2C1
  3200 ;; This function is called by:
  3201 ;;		_readAButton
  3202 ;;		_readTestPattern
  3203 ;; This function uses a non-reentrant model
  3204 ;;
  3205                           
  3206                           	psect	text19
  3207  0004AA                     __ptext19:
  3208                           	opt stack 0
  3209  0004AA                     _HDByteReadI2C:
  3210                           	opt stack 18
  3211                           
  3212                           ; BSR set to: 0
  3213                           ;incstack = 0
  3214                           ;HDByteReadI2C@ControlByte stored from wreg
  3215  0004AA  0100               	movlb	0	; () banked
  3216  0004AC  6FC0               	movwf	HDByteReadI2C@ControlByte& (0+255),b
  3217  0004AE                     l2742:
  3218                           
  3219                           ; BSR set to: 0
  3220  0004AE  A4C7               	btfss	4039,2,c	;volatile
  3221  0004B0  D004               	goto	u4070
  3222  0004B2  0100               	movlb	0	; () banked
  3223  0004B4  6BBF               	clrf	??_HDByteReadI2C& (0+255),b
  3224  0004B6  2BBF               	incf	??_HDByteReadI2C& (0+255),f,b
  3225  0004B8  D002               	goto	u4078
  3226  0004BA                     u4070:
  3227  0004BA  0100               	movlb	0	; () banked
  3228  0004BC  6BBF               	clrf	??_HDByteReadI2C& (0+255),b
  3229  0004BE                     u4078:
  3230  0004BE  50C5               	movf	4037,w,c	;volatile
  3231  0004C0  0B1F               	andlw	31
  3232  0004C2  0100               	movlb	0	; () banked
  3233  0004C4  11BF               	iorwf	??_HDByteReadI2C& (0+255),w,b
  3234  0004C6  0900               	iorlw	0
  3235  0004C8  A4D8               	btfss	status,2,c
  3236  0004CA  D7F1               	goto	l2742
  3237                           
  3238                           ; BSR set to: 0
  3239                           ;massStorage.c: 83: SSP1CON2bits.SEN=1;while(SSP1CON2bits.SEN);
  3240  0004CC  80C5               	bsf	4037,0,c	;volatile
  3241  0004CE                     l379:
  3242                           
  3243                           ; BSR set to: 0
  3244  0004CE  B0C5               	btfsc	4037,0,c	;volatile
  3245  0004D0  D7FE               	goto	l379
  3246  0004D2                     l382:
  3247                           
  3248                           ; BSR set to: 0
  3249  0004D2  B0C5               	btfsc	4037,0,c	;volatile
  3250  0004D4  D7FE               	goto	l382
  3251                           
  3252                           ; BSR set to: 0
  3253                           ;massStorage.c: 85: WriteI2C1( ControlByte );
  3254                           
  3255                           ; BSR set to: 0
  3256  0004D6  0100               	movlb	0	; () banked
  3257  0004D8  51C0               	movf	HDByteReadI2C@ControlByte& (0+255),w,b
  3258  0004DA  EC66  F004         	call	_WriteI2C1
  3259  0004DE                     l2746:
  3260  0004DE  A4C7               	btfss	4039,2,c	;volatile
  3261  0004E0  D004               	goto	u4110
  3262  0004E2  0100               	movlb	0	; () banked
  3263  0004E4  6BBF               	clrf	??_HDByteReadI2C& (0+255),b
  3264  0004E6  2BBF               	incf	??_HDByteReadI2C& (0+255),f,b
  3265  0004E8  D002               	goto	u4118
  3266  0004EA                     u4110:
  3267  0004EA  0100               	movlb	0	; () banked
  3268  0004EC  6BBF               	clrf	??_HDByteReadI2C& (0+255),b
  3269  0004EE                     u4118:
  3270  0004EE  50C5               	movf	4037,w,c	;volatile
  3271  0004F0  0B1F               	andlw	31
  3272  0004F2  0100               	movlb	0	; () banked
  3273  0004F4  11BF               	iorwf	??_HDByteReadI2C& (0+255),w,b
  3274  0004F6  0900               	iorlw	0
  3275  0004F8  A4D8               	btfss	status,2,c
  3276  0004FA  D7F1               	goto	l2746
  3277                           
  3278                           ; BSR set to: 0
  3279                           ;massStorage.c: 87: WriteI2C1( HighAdd );
  3280                           
  3281                           ; BSR set to: 0
  3282  0004FC  0100               	movlb	0	; () banked
  3283  0004FE  51BA               	movf	HDByteReadI2C@HighAdd& (0+255),w,b
  3284  000500  EC66  F004         	call	_WriteI2C1
  3285  000504                     l2750:
  3286  000504  A4C7               	btfss	4039,2,c	;volatile
  3287  000506  D004               	goto	u4130
  3288  000508  0100               	movlb	0	; () banked
  3289  00050A  6BBF               	clrf	??_HDByteReadI2C& (0+255),b
  3290  00050C  2BBF               	incf	??_HDByteReadI2C& (0+255),f,b
  3291  00050E  D002               	goto	u4138
  3292  000510                     u4130:
  3293  000510  0100               	movlb	0	; () banked
  3294  000512  6BBF               	clrf	??_HDByteReadI2C& (0+255),b
  3295  000514                     u4138:
  3296  000514  50C5               	movf	4037,w,c	;volatile
  3297  000516  0B1F               	andlw	31
  3298  000518  0100               	movlb	0	; () banked
  3299  00051A  11BF               	iorwf	??_HDByteReadI2C& (0+255),w,b
  3300  00051C  0900               	iorlw	0
  3301  00051E  A4D8               	btfss	status,2,c
  3302  000520  D7F1               	goto	l2750
  3303  000522                     l391:
  3304                           
  3305                           ; BSR set to: 0
  3306  000522  B2C5               	btfsc	4037,1,c	;volatile
  3307  000524  D7FE               	goto	l391
  3308                           
  3309                           ; BSR set to: 0
  3310                           ;massStorage.c: 90: WriteI2C1( LowAdd );
  3311                           
  3312                           ; BSR set to: 0
  3313  000526  0100               	movlb	0	; () banked
  3314  000528  51BB               	movf	HDByteReadI2C@LowAdd& (0+255),w,b
  3315  00052A  EC66  F004         	call	_WriteI2C1
  3316  00052E                     l2754:
  3317  00052E  A4C7               	btfss	4039,2,c	;volatile
  3318  000530  D004               	goto	u4160
  3319  000532  0100               	movlb	0	; () banked
  3320  000534  6BBF               	clrf	??_HDByteReadI2C& (0+255),b
  3321  000536  2BBF               	incf	??_HDByteReadI2C& (0+255),f,b
  3322  000538  D002               	goto	u4168
  3323  00053A                     u4160:
  3324  00053A  0100               	movlb	0	; () banked
  3325  00053C  6BBF               	clrf	??_HDByteReadI2C& (0+255),b
  3326  00053E                     u4168:
  3327  00053E  50C5               	movf	4037,w,c	;volatile
  3328  000540  0B1F               	andlw	31
  3329  000542  0100               	movlb	0	; () banked
  3330  000544  11BF               	iorwf	??_HDByteReadI2C& (0+255),w,b
  3331  000546  0900               	iorlw	0
  3332  000548  A4D8               	btfss	status,2,c
  3333  00054A  D7F1               	goto	l2754
  3334                           
  3335                           ; BSR set to: 0
  3336                           ;massStorage.c: 92: SSP1CON2bits.RSEN=1;while(SSP1CON2bits.RSEN);
  3337  00054C  82C5               	bsf	4037,1,c	;volatile
  3338  00054E                     l397:
  3339                           
  3340                           ; BSR set to: 0
  3341  00054E  B2C5               	btfsc	4037,1,c	;volatile
  3342  000550  D7FE               	goto	l397
  3343  000552                     l400:
  3344                           
  3345                           ; BSR set to: 0
  3346  000552  B2C5               	btfsc	4037,1,c	;volatile
  3347  000554  D7FE               	goto	l400
  3348                           
  3349                           ; BSR set to: 0
  3350                           ;massStorage.c: 94: WriteI2C1( ControlByte | 0x01 );
  3351                           
  3352                           ; BSR set to: 0
  3353  000556  0100               	movlb	0	; () banked
  3354  000558  51C0               	movf	HDByteReadI2C@ControlByte& (0+255),w,b
  3355  00055A  0901               	iorlw	1
  3356  00055C  EC66  F004         	call	_WriteI2C1
  3357  000560                     l2758:
  3358  000560  A4C7               	btfss	4039,2,c	;volatile
  3359  000562  D004               	goto	u4200
  3360  000564  0100               	movlb	0	; () banked
  3361  000566  6BBF               	clrf	??_HDByteReadI2C& (0+255),b
  3362  000568  2BBF               	incf	??_HDByteReadI2C& (0+255),f,b
  3363  00056A  D002               	goto	u4208
  3364  00056C                     u4200:
  3365  00056C  0100               	movlb	0	; () banked
  3366  00056E  6BBF               	clrf	??_HDByteReadI2C& (0+255),b
  3367  000570                     u4208:
  3368  000570  50C5               	movf	4037,w,c	;volatile
  3369  000572  0B1F               	andlw	31
  3370  000574  0100               	movlb	0	; () banked
  3371  000576  11BF               	iorwf	??_HDByteReadI2C& (0+255),w,b
  3372  000578  0900               	iorlw	0
  3373  00057A  A4D8               	btfss	status,2,c
  3374  00057C  D7F1               	goto	l2758
  3375                           
  3376                           ; BSR set to: 0
  3377                           ;massStorage.c: 96: getsI2C1( data, length );
  3378                           
  3379                           ; BSR set to: 0
  3380  00057E  0100               	movlb	0	; () banked
  3381  000580  C0BD  F0B7         	movff	HDByteReadI2C@data+1,getsI2C1@rdptr+1
  3382  000584  0100               	movlb	0	; () banked
  3383  000586  C0BC  F0B6         	movff	HDByteReadI2C@data,getsI2C1@rdptr
  3384  00058A  C0BE  F0B8         	movff	HDByteReadI2C@length,getsI2C1@length
  3385  00058E  ECD2  F006         	call	_getsI2C1	;wreg free
  3386                           
  3387                           ;massStorage.c: 97: SSP1CON2bits.ACKDT=1, SSP1CON2bits.ACKEN=1;while(SSP1CON2bits.ACKEN)
      +                          ;
  3388  000592  8AC5               	bsf	4037,5,c	;volatile
  3389  000594  88C5               	bsf	4037,4,c	;volatile
  3390  000596                     l406:
  3391  000596  B8C5               	btfsc	4037,4,c	;volatile
  3392  000598  D7FE               	goto	l406
  3393  00059A                     l409:
  3394  00059A  B8C5               	btfsc	4037,4,c	;volatile
  3395  00059C  D7FE               	goto	l409
  3396                           
  3397                           ;massStorage.c: 99: SSP1CON2bits.PEN=1;while(SSP1CON2bits.PEN);
  3398  00059E  84C5               	bsf	4037,2,c	;volatile
  3399  0005A0                     l412:
  3400  0005A0  B4C5               	btfsc	4037,2,c	;volatile
  3401  0005A2  D7FE               	goto	l412
  3402  0005A4                     l415:
  3403  0005A4  A4C5               	btfss	4037,2,c	;volatile
  3404                           
  3405                           ;massStorage.c: 101: return ( 0 );
  3406                           ;	Return value of _HDByteReadI2C is never used
  3407  0005A6  0012               	return	
  3408  0005A8  D7FD               	goto	l415
  3409  0005AA                     __end_of_HDByteReadI2C:
  3410                           	opt stack 0
  3411                           tblptru	equ	0xFF8
  3412                           prodh	equ	0xFF4
  3413                           prodl	equ	0xFF3
  3414                           intcon	equ	0xFF2
  3415                           intcon2	equ	0xFF1
  3416                           postinc0	equ	0xFEE
  3417                           wreg	equ	0xFE8
  3418                           postdec1	equ	0xFE5
  3419                           fsr1h	equ	0xFE2
  3420                           fsr1l	equ	0xFE1
  3421                           indf2	equ	0xFDF
  3422                           fsr2h	equ	0xFDA
  3423                           fsr2l	equ	0xFD9
  3424                           status	equ	0xFD8
  3425                           
  3426 ;; *************** function _getsI2C1 *****************
  3427 ;; Defined at:
  3428 ;;		line 16 in file "C:\Program Files (x86)\Microchip\xc8\v1.32\sources\pic18\plib\i2c\i2c1gets.c"
  3429 ;; Parameters:    Size  Location     Type
  3430 ;;  rdptr           2   19[BANK0 ] PTR unsigned char 
  3431 ;;		 -> readTestPattern@r(32), doDimStep@sc(3), readAButton@program(1), 
  3432 ;;  length          1   21[BANK0 ] unsigned char 
  3433 ;; Auto vars:     Size  Location     Type
  3434 ;;		None
  3435 ;; Return value:  Size  Location     Type
  3436 ;;                  1    wreg      char 
  3437 ;; Registers used:
  3438 ;;		wreg, fsr2l, fsr2h, status,2, status,0, cstack
  3439 ;; Tracked objects:
  3440 ;;		On entry : 0/0
  3441 ;;		On exit  : 0/0
  3442 ;;		Unchanged: 0/0
  3443 ;; Data sizes:     COMRAM   BANK0   BANK1   BANK2   BANK3   BANK4   BANK5
  3444 ;;      Params:         0       3       0       0       0       0       0
  3445 ;;      Locals:         0       0       0       0       0       0       0
  3446 ;;      Temps:          0       1       0       0       0       0       0
  3447 ;;      Totals:         0       4       0       0       0       0       0
  3448 ;;Total ram usage:        4 bytes
  3449 ;; Hardware stack levels used:    1
  3450 ;; Hardware stack levels required when called:    9
  3451 ;; This function calls:
  3452 ;;		_ReadI2C1
  3453 ;; This function is called by:
  3454 ;;		_HDByteReadI2C
  3455 ;;		_LDByteReadI2C
  3456 ;; This function uses a non-reentrant model
  3457 ;;
  3458                           
  3459                           	psect	text20
  3460  000DA4                     __ptext20:
  3461                           	opt stack 0
  3462  000DA4                     _getsI2C1:
  3463                           	opt stack 18
  3464                           
  3465                           ;incstack = 0
  3466  000DA4  D02A               	goto	l2684
  3467  000DA6                     l2670:
  3468  000DA6  ECD7  F008         	call	_ReadI2C1	;wreg free
  3469  000DAA  C0B6  FFD9         	movff	getsI2C1@rdptr,fsr2l
  3470  000DAE  C0B7  FFDA         	movff	getsI2C1@rdptr+1,fsr2h
  3471  000DB2  6EDF               	movwf	indf2,c
  3472  000DB4  0100               	movlb	0	; () banked
  3473  000DB6  4BB6               	infsnz	getsI2C1@rdptr& (0+255),f,b
  3474  000DB8  2BB7               	incf	(getsI2C1@rdptr+1)& (0+255),f,b
  3475  000DBA                     l567:
  3476  000DBA  B6C5               	btfsc	4037,3,c	;volatile
  3477  000DBC  D7FE               	goto	l567
  3478  000DBE  B6A1               	btfsc	4001,3,c	;volatile
  3479  000DC0  0012               	return	
  3480                           
  3481                           ;	Return value of _getsI2C1 is never used
  3482  000DC2  CFC6 F0B9          	movff	4038,??_getsI2C1	;volatile
  3483  000DC6  0E0F               	movlw	15
  3484  000DC8  0100               	movlb	0	; () banked
  3485  000DCA  17B9               	andwf	??_getsI2C1& (0+255),f,b
  3486  000DCC  0100               	movlb	0	; () banked
  3487  000DCE  51B9               	movf	??_getsI2C1& (0+255),w,b
  3488  000DD0  0A08               	xorlw	8
  3489  000DD2  B4D8               	btfsc	status,2,c
  3490  000DD4  D00A               	goto	l2680
  3491                           
  3492                           ; BSR set to: 0
  3493  000DD6  CFC6 F0B9          	movff	4038,??_getsI2C1	;volatile
  3494  000DDA  0E0F               	movlw	15
  3495  000DDC  0100               	movlb	0	; () banked
  3496  000DDE  17B9               	andwf	??_getsI2C1& (0+255),f,b
  3497  000DE0  0100               	movlb	0	; () banked
  3498  000DE2  51B9               	movf	??_getsI2C1& (0+255),w,b
  3499  000DE4  0A0B               	xorlw	11
  3500  000DE6  A4D8               	btfss	status,2,c
  3501  000DE8  D008               	goto	l2684
  3502  000DEA                     l2680:
  3503                           
  3504                           ; BSR set to: 0
  3505  000DEA  0100               	movlb	0	; () banked
  3506  000DEC  51B8               	movf	getsI2C1@length& (0+255),w,b
  3507  000DEE  B4D8               	btfsc	status,2,c
  3508  000DF0  D004               	goto	l2684
  3509                           
  3510                           ; BSR set to: 0
  3511  000DF2  9AC5               	bcf	4037,5,c	;volatile
  3512  000DF4  88C5               	bsf	4037,4,c	;volatile
  3513  000DF6                     l576:
  3514  000DF6  B8C5               	btfsc	4037,4,c	;volatile
  3515  000DF8  D7FE               	goto	l576
  3516  000DFA                     l2684:
  3517  000DFA  0100               	movlb	0	; () banked
  3518  000DFC  07B8               	decf	getsI2C1@length& (0+255),f,b
  3519  000DFE  0100               	movlb	0	; () banked
  3520  000E00  29B8               	incf	getsI2C1@length& (0+255),w,b
  3521  000E02  B4D8               	btfsc	status,2,c
  3522                           
  3523                           ; BSR set to: 0
  3524                           ;	Return value of _getsI2C1 is never used
  3525  000E04  0012               	return	
  3526  000E06  D7CF               	goto	l2670
  3527  000E08                     __end_of_getsI2C1:
  3528                           	opt stack 0
  3529                           tblptru	equ	0xFF8
  3530                           prodh	equ	0xFF4
  3531                           prodl	equ	0xFF3
  3532                           intcon	equ	0xFF2
  3533                           intcon2	equ	0xFF1
  3534                           postinc0	equ	0xFEE
  3535                           wreg	equ	0xFE8
  3536                           postdec1	equ	0xFE5
  3537                           fsr1h	equ	0xFE2
  3538                           fsr1l	equ	0xFE1
  3539                           indf2	equ	0xFDF
  3540                           fsr2h	equ	0xFDA
  3541                           fsr2l	equ	0xFD9
  3542                           status	equ	0xFD8
  3543                           
  3544 ;; *************** function _ReadI2C1 *****************
  3545 ;; Defined at:
  3546 ;;		line 11 in file "C:\Program Files (x86)\Microchip\xc8\v1.32\sources\pic18\plib\i2c\i2c1read.c"
  3547 ;; Parameters:    Size  Location     Type
  3548 ;;		None
  3549 ;; Auto vars:     Size  Location     Type
  3550 ;;		None
  3551 ;; Return value:  Size  Location     Type
  3552 ;;                  1    wreg      unsigned char 
  3553 ;; Registers used:
  3554 ;;		wreg, status,2, status,0
  3555 ;; Tracked objects:
  3556 ;;		On entry : 0/0
  3557 ;;		On exit  : 0/0
  3558 ;;		Unchanged: 0/0
  3559 ;; Data sizes:     COMRAM   BANK0   BANK1   BANK2   BANK3   BANK4   BANK5
  3560 ;;      Params:         0       0       0       0       0       0       0
  3561 ;;      Locals:         0       0       0       0       0       0       0
  3562 ;;      Temps:          0       1       0       0       0       0       0
  3563 ;;      Totals:         0       1       0       0       0       0       0
  3564 ;;Total ram usage:        1 bytes
  3565 ;; Hardware stack levels used:    1
  3566 ;; Hardware stack levels required when called:    8
  3567 ;; This function calls:
  3568 ;;		Nothing
  3569 ;; This function is called by:
  3570 ;;		_getsI2C1
  3571 ;; This function uses a non-reentrant model
  3572 ;;
  3573                           
  3574                           	psect	text21
  3575  0011AE                     __ptext21:
  3576                           	opt stack 0
  3577  0011AE                     _ReadI2C1:
  3578                           	opt stack 18
  3579                           
  3580                           ;incstack = 0
  3581  0011AE  CFC6 F0B5          	movff	4038,??_ReadI2C1	;volatile
  3582  0011B2  0E0F               	movlw	15
  3583  0011B4  0100               	movlb	0	; () banked
  3584  0011B6  17B5               	andwf	??_ReadI2C1& (0+255),f,b
  3585  0011B8  0100               	movlb	0	; () banked
  3586  0011BA  51B5               	movf	??_ReadI2C1& (0+255),w,b
  3587  0011BC  0A08               	xorlw	8
  3588  0011BE  B4D8               	btfsc	status,2,c
  3589  0011C0  D009               	goto	l601
  3590                           
  3591                           ; BSR set to: 0
  3592  0011C2  CFC6 F0B5          	movff	4038,??_ReadI2C1	;volatile
  3593  0011C6  0E0F               	movlw	15
  3594  0011C8  0100               	movlb	0	; () banked
  3595  0011CA  17B5               	andwf	??_ReadI2C1& (0+255),f,b
  3596  0011CC  0100               	movlb	0	; () banked
  3597  0011CE  51B5               	movf	??_ReadI2C1& (0+255),w,b
  3598  0011D0  0A0B               	xorlw	11
  3599  0011D2  B4D8               	btfsc	status,2,c
  3600  0011D4                     l601:
  3601                           
  3602                           ; BSR set to: 0
  3603  0011D4  86C5               	bsf	4037,3,c	;volatile
  3604  0011D6                     l602:
  3605  0011D6  A0C7               	btfss	4039,0,c	;volatile
  3606  0011D8  D7FE               	goto	l602
  3607  0011DA  50C9               	movf	4041,w,c	;volatile
  3608  0011DC  0012               	return	
  3609  0011DE                     __end_of_ReadI2C1:
  3610                           	opt stack 0
  3611                           tblptru	equ	0xFF8
  3612                           prodh	equ	0xFF4
  3613                           prodl	equ	0xFF3
  3614                           intcon	equ	0xFF2
  3615                           intcon2	equ	0xFF1
  3616                           postinc0	equ	0xFEE
  3617                           wreg	equ	0xFE8
  3618                           postdec1	equ	0xFE5
  3619                           fsr1h	equ	0xFE2
  3620                           fsr1l	equ	0xFE1
  3621                           indf2	equ	0xFDF
  3622                           fsr2h	equ	0xFDA
  3623                           fsr2l	equ	0xFD9
  3624                           status	equ	0xFD8
  3625                           
  3626 ;; *************** function _WriteI2C1 *****************
  3627 ;; Defined at:
  3628 ;;		line 12 in file "C:\Program Files (x86)\Microchip\xc8\v1.32\sources\pic18\plib\i2c\i2c1writ.c"
  3629 ;; Parameters:    Size  Location     Type
  3630 ;;  data_out        1    wreg     unsigned char 
  3631 ;; Auto vars:     Size  Location     Type
  3632 ;;  data_out        1   19[BANK0 ] unsigned char 
  3633 ;; Return value:  Size  Location     Type
  3634 ;;                  1    wreg      char 
  3635 ;; Registers used:
  3636 ;;		wreg, status,2, status,0
  3637 ;; Tracked objects:
  3638 ;;		On entry : 0/0
  3639 ;;		On exit  : 0/0
  3640 ;;		Unchanged: 0/0
  3641 ;; Data sizes:     COMRAM   BANK0   BANK1   BANK2   BANK3   BANK4   BANK5
  3642 ;;      Params:         0       0       0       0       0       0       0
  3643 ;;      Locals:         0       1       0       0       0       0       0
  3644 ;;      Temps:          0       1       0       0       0       0       0
  3645 ;;      Totals:         0       2       0       0       0       0       0
  3646 ;;Total ram usage:        2 bytes
  3647 ;; Hardware stack levels used:    1
  3648 ;; Hardware stack levels required when called:    8
  3649 ;; This function calls:
  3650 ;;		Nothing
  3651 ;; This function is called by:
  3652 ;;		_HDByteWriteI2C
  3653 ;;		_HDByteReadI2C
  3654 ;;		_EEAckPolling1
  3655 ;;		_LDByteReadI2C
  3656 ;;		_LDByteWriteI2C
  3657 ;; This function uses a non-reentrant model
  3658 ;;
  3659                           
  3660                           	psect	text22
  3661  0008CC                     __ptext22:
  3662                           	opt stack 0
  3663  0008CC                     _WriteI2C1:
  3664                           	opt stack 18
  3665                           
  3666                           ;incstack = 0
  3667                           ;WriteI2C1@data_out stored from wreg
  3668  0008CC  0100               	movlb	0	; () banked
  3669  0008CE  6FB6               	movwf	WriteI2C1@data_out& (0+255),b
  3670                           
  3671                           ; BSR set to: 0
  3672  0008D0  C0B6  FFC9         	movff	WriteI2C1@data_out,4041	;volatile
  3673                           
  3674                           ; BSR set to: 0
  3675  0008D4  AEC6               	btfss	4038,7,c	;volatile
  3676  0008D6  D002               	goto	l2588
  3677                           
  3678                           ; BSR set to: 0
  3679  0008D8  0EFF               	movlw	255
  3680  0008DA  0012               	return	
  3681  0008DC                     l2588:
  3682                           
  3683                           ; BSR set to: 0
  3684  0008DC  CFC6 F0B5          	movff	4038,??_WriteI2C1	;volatile
  3685  0008E0  0E0F               	movlw	15
  3686  0008E2  0100               	movlb	0	; () banked
  3687  0008E4  17B5               	andwf	??_WriteI2C1& (0+255),f,b
  3688  0008E6  0100               	movlb	0	; () banked
  3689  0008E8  51B5               	movf	??_WriteI2C1& (0+255),w,b
  3690  0008EA  0A08               	xorlw	8
  3691  0008EC  B4D8               	btfsc	status,2,c
  3692  0008EE  D014               	goto	l2606
  3693                           
  3694                           ; BSR set to: 0
  3695  0008F0  CFC6 F0B5          	movff	4038,??_WriteI2C1	;volatile
  3696  0008F4  0E0F               	movlw	15
  3697  0008F6  0100               	movlb	0	; () banked
  3698  0008F8  17B5               	andwf	??_WriteI2C1& (0+255),f,b
  3699  0008FA  0100               	movlb	0	; () banked
  3700  0008FC  51B5               	movf	??_WriteI2C1& (0+255),w,b
  3701  0008FE  0A0B               	xorlw	11
  3702  000900  B4D8               	btfsc	status,2,c
  3703  000902  D00A               	goto	l2606
  3704                           
  3705                           ; BSR set to: 0
  3706  000904  88C6               	bsf	4038,4,c	;volatile
  3707  000906                     l626:
  3708                           
  3709                           ; BSR set to: 0
  3710  000906  A69E               	btfss	3998,3,c	;volatile
  3711  000908  D7FE               	goto	l626
  3712                           
  3713                           ; BSR set to: 0
  3714  00090A  A4C7               	btfss	4039,2,c	;volatile
  3715                           
  3716                           ; BSR set to: 0
  3717  00090C  B0C7               	btfsc	4039,0,c	;volatile
  3718  00090E  D002               	goto	l2602
  3719                           
  3720                           ; BSR set to: 0
  3721  000910  0EFE               	movlw	254
  3722  000912  0012               	return	
  3723  000914                     l2602:
  3724                           
  3725                           ; BSR set to: 0
  3726  000914  0E00               	movlw	0
  3727  000916  0012               	return	
  3728  000918                     l2606:
  3729                           
  3730                           ; BSR set to: 0
  3731  000918  CFC6 F0B5          	movff	4038,??_WriteI2C1	;volatile
  3732  00091C  0E0F               	movlw	15
  3733  00091E  0100               	movlb	0	; () banked
  3734  000920  17B5               	andwf	??_WriteI2C1& (0+255),f,b
  3735  000922  0100               	movlb	0	; () banked
  3736  000924  51B5               	movf	??_WriteI2C1& (0+255),w,b
  3737  000926  0A08               	xorlw	8
  3738  000928  B4D8               	btfsc	status,2,c
  3739  00092A  D00A               	goto	l635
  3740                           
  3741                           ; BSR set to: 0
  3742  00092C  CFC6 F0B5          	movff	4038,??_WriteI2C1	;volatile
  3743  000930  0E0F               	movlw	15
  3744  000932  0100               	movlb	0	; () banked
  3745  000934  17B5               	andwf	??_WriteI2C1& (0+255),f,b
  3746  000936  0100               	movlb	0	; () banked
  3747  000938  51B5               	movf	??_WriteI2C1& (0+255),w,b
  3748  00093A  0A0B               	xorlw	11
  3749  00093C  A4D8               	btfss	status,2,c
  3750  00093E  0012               	return	
  3751  000940                     l635:
  3752                           
  3753                           ; BSR set to: 0
  3754  000940  B0C7               	btfsc	4039,0,c	;volatile
  3755  000942  D7FE               	goto	l635
  3756  000944                     l2610:
  3757                           
  3758                           ; BSR set to: 0
  3759  000944  A4C7               	btfss	4039,2,c	;volatile
  3760  000946  D004               	goto	u3590
  3761  000948  0100               	movlb	0	; () banked
  3762  00094A  6BB5               	clrf	??_WriteI2C1& (0+255),b
  3763  00094C  2BB5               	incf	??_WriteI2C1& (0+255),f,b
  3764  00094E  D002               	goto	u3598
  3765  000950                     u3590:
  3766  000950  0100               	movlb	0	; () banked
  3767  000952  6BB5               	clrf	??_WriteI2C1& (0+255),b
  3768  000954                     u3598:
  3769  000954  50C5               	movf	4037,w,c	;volatile
  3770  000956  0B1F               	andlw	31
  3771  000958  0100               	movlb	0	; () banked
  3772  00095A  11B5               	iorwf	??_WriteI2C1& (0+255),w,b
  3773  00095C  0900               	iorlw	0
  3774  00095E  A4D8               	btfss	status,2,c
  3775  000960  D7F1               	goto	l2610
  3776                           
  3777                           ; BSR set to: 0
  3778  000962  ACC5               	btfss	4037,6,c	;volatile
  3779  000964  D002               	goto	l2618
  3780                           
  3781                           ; BSR set to: 0
  3782  000966  0EFE               	movlw	254
  3783  000968  0012               	return	
  3784  00096A                     l2618:
  3785                           
  3786                           ; BSR set to: 0
  3787  00096A  0E00               	movlw	0
  3788  00096C  0012               	return	
  3789  00096E                     __end_of_WriteI2C1:
  3790                           	opt stack 0
  3791                           tblptru	equ	0xFF8
  3792                           prodh	equ	0xFF4
  3793                           prodl	equ	0xFF3
  3794                           intcon	equ	0xFF2
  3795                           intcon2	equ	0xFF1
  3796                           postinc0	equ	0xFEE
  3797                           wreg	equ	0xFE8
  3798                           postdec1	equ	0xFE5
  3799                           fsr1h	equ	0xFE2
  3800                           fsr1l	equ	0xFE1
  3801                           indf2	equ	0xFDF
  3802                           fsr2h	equ	0xFDA
  3803                           fsr2l	equ	0xFD9
  3804                           status	equ	0xFD8
  3805                           
  3806 ;; *************** function _initButton *****************
  3807 ;; Defined at:
  3808 ;;		line 132 in file "buttons.c"
  3809 ;; Parameters:    Size  Location     Type
  3810 ;;  i               1    wreg     unsigned char 
  3811 ;;  bn              1   18[BANK0 ] unsigned char 
  3812 ;;  bf              1   19[BANK0 ] unsigned char 
  3813 ;; Auto vars:     Size  Location     Type
  3814 ;;  i               1   20[BANK0 ] unsigned char 
  3815 ;;  bp              2   21[BANK0 ] PTR struct button
  3816 ;;		 -> buttons(256), 
  3817 ;; Return value:  Size  Location     Type
  3818 ;;		None               void
  3819 ;; Registers used:
  3820 ;;		wreg, fsr2l, fsr2h, status,2, status,0, prodl, prodh
  3821 ;; Tracked objects:
  3822 ;;		On entry : 0/0
  3823 ;;		On exit  : 0/0
  3824 ;;		Unchanged: 0/0
  3825 ;; Data sizes:     COMRAM   BANK0   BANK1   BANK2   BANK3   BANK4   BANK5
  3826 ;;      Params:         0       2       0       0       0       0       0
  3827 ;;      Locals:         0       3       0       0       0       0       0
  3828 ;;      Temps:          0       0       0       0       0       0       0
  3829 ;;      Totals:         0       5       0       0       0       0       0
  3830 ;;Total ram usage:        5 bytes
  3831 ;; Hardware stack levels used:    1
  3832 ;; Hardware stack levels required when called:    8
  3833 ;; This function calls:
  3834 ;;		Nothing
  3835 ;; This function is called by:
  3836 ;;		_initAllButtons
  3837 ;; This function uses a non-reentrant model
  3838 ;;
  3839                           
  3840                           	psect	text23
  3841  000CC4                     __ptext23:
  3842                           	opt stack 0
  3843  000CC4                     _initButton:
  3844                           	opt stack 20
  3845                           
  3846                           ; BSR set to: 0
  3847                           ;incstack = 0
  3848                           ;initButton@i stored from wreg
  3849  000CC4  0100               	movlb	0	; () banked
  3850  000CC6  6FB7               	movwf	initButton@i& (0+255),b
  3851                           
  3852                           ; BSR set to: 0
  3853                           ;buttons.c: 134: BUTTON *bp = &buttons[i];
  3854  000CC8  0100               	movlb	0	; () banked
  3855  000CCA  51B7               	movf	initButton@i& (0+255),w,b
  3856  000CCC  0D04               	mullw	4
  3857  000CCE  0101               	movlb	1	; () banked
  3858  000CD0  0E00               	movlw	low _buttons
  3859  000CD2  24F3               	addwf	prodl,w,c
  3860  000CD4  0100               	movlb	0	; () banked
  3861  000CD6  6FB8               	movwf	initButton@bp& (0+255),b
  3862  000CD8  0101               	movlb	1	; () banked
  3863  000CDA  0E01               	movlw	high _buttons
  3864  000CDC  20F4               	addwfc	prodh,w,c
  3865  000CDE  0100               	movlb	0	; () banked
  3866  000CE0  6FB9               	movwf	(initButton@bp+1)& (0+255),b
  3867                           
  3868                           ; BSR set to: 0
  3869                           ;buttons.c: 136: bp -> buttonNumber = bn;
  3870  000CE2  C0B8  FFD9         	movff	initButton@bp,fsr2l
  3871  000CE6  C0B9  FFDA         	movff	initButton@bp+1,fsr2h
  3872  000CEA  0100               	movlb	0	; () banked
  3873  000CEC  C0B5  FFDF         	movff	initButton@bn,indf2
  3874                           
  3875                           ; BSR set to: 0
  3876                           ;buttons.c: 137: bp -> buttonFunction = bf;
  3877  000CF0  0100               	movlb	0	; () banked
  3878  000CF2  EE20 F001          	lfsr	2,1
  3879  000CF6  0100               	movlb	0	; () banked
  3880  000CF8  51B8               	movf	initButton@bp& (0+255),w,b
  3881  000CFA  26D9               	addwf	fsr2l,f,c
  3882  000CFC  0100               	movlb	0	; () banked
  3883  000CFE  51B9               	movf	(initButton@bp+1)& (0+255),w,b
  3884  000D00  22DA               	addwfc	fsr2h,f,c
  3885  000D02  0100               	movlb	0	; () banked
  3886  000D04  C0B6  FFDF         	movff	initButton@bf,indf2
  3887                           
  3888                           ; BSR set to: 0
  3889                           ;buttons.c: 139: bp -> isActive = 0;
  3890  000D08  0100               	movlb	0	; () banked
  3891  000D0A  EE20 F002          	lfsr	2,2
  3892  000D0E  0100               	movlb	0	; () banked
  3893  000D10  51B8               	movf	initButton@bp& (0+255),w,b
  3894  000D12  26D9               	addwf	fsr2l,f,c
  3895  000D14  0100               	movlb	0	; () banked
  3896  000D16  51B9               	movf	(initButton@bp+1)& (0+255),w,b
  3897  000D18  22DA               	addwfc	fsr2h,f,c
  3898  000D1A  0E00               	movlw	0
  3899  000D1C  6EDF               	movwf	indf2,c
  3900                           
  3901                           ; BSR set to: 0
  3902                           ;buttons.c: 140: bp -> watchdog = 0;
  3903  000D1E  0100               	movlb	0	; () banked
  3904  000D20  EE20 F003          	lfsr	2,3
  3905  000D24  0100               	movlb	0	; () banked
  3906  000D26  51B8               	movf	initButton@bp& (0+255),w,b
  3907  000D28  26D9               	addwf	fsr2l,f,c
  3908  000D2A  0100               	movlb	0	; () banked
  3909  000D2C  51B9               	movf	(initButton@bp+1)& (0+255),w,b
  3910  000D2E  22DA               	addwfc	fsr2h,f,c
  3911  000D30  0E00               	movlw	0
  3912  000D32  6EDF               	movwf	indf2,c
  3913                           
  3914                           ; BSR set to: 0
  3915  000D34  0012               	return	
  3916  000D36                     __end_of_initButton:
  3917                           	opt stack 0
  3918                           tblptru	equ	0xFF8
  3919                           prodh	equ	0xFF4
  3920                           prodl	equ	0xFF3
  3921                           intcon	equ	0xFF2
  3922                           intcon2	equ	0xFF1
  3923                           postinc0	equ	0xFEE
  3924                           wreg	equ	0xFE8
  3925                           postdec1	equ	0xFE5
  3926                           fsr1h	equ	0xFE2
  3927                           fsr1l	equ	0xFE1
  3928                           indf2	equ	0xFDF
  3929                           fsr2h	equ	0xFDA
  3930                           fsr2l	equ	0xFD9
  3931                           status	equ	0xFD8
  3932                           
  3933 ;; *************** function _fifoGet *****************
  3934 ;; Defined at:
  3935 ;;		line 40 in file "fifo.c"
  3936 ;; Parameters:    Size  Location     Type
  3937 ;;		None
  3938 ;; Auto vars:     Size  Location     Type
  3939 ;;  v               1   20[BANK0 ] unsigned char 
  3940 ;; Return value:  Size  Location     Type
  3941 ;;                  1    wreg      unsigned char 
  3942 ;; Registers used:
  3943 ;;		wreg, fsr2l, fsr2h, status,2, status,0, prodl, prodh
  3944 ;; Tracked objects:
  3945 ;;		On entry : 0/0
  3946 ;;		On exit  : 0/0
  3947 ;;		Unchanged: 0/0
  3948 ;; Data sizes:     COMRAM   BANK0   BANK1   BANK2   BANK3   BANK4   BANK5
  3949 ;;      Params:         0       0       0       0       0       0       0
  3950 ;;      Locals:         0       1       0       0       0       0       0
  3951 ;;      Temps:          0       2       0       0       0       0       0
  3952 ;;      Totals:         0       3       0       0       0       0       0
  3953 ;;Total ram usage:        3 bytes
  3954 ;; Hardware stack levels used:    1
  3955 ;; Hardware stack levels required when called:    8
  3956 ;; This function calls:
  3957 ;;		Nothing
  3958 ;; This function is called by:
  3959 ;;		_main
  3960 ;; This function uses a non-reentrant model
  3961 ;;
  3962                           
  3963                           	psect	text24
  3964  001148                     __ptext24:
  3965                           	opt stack 0
  3966  001148                     _fifoGet:
  3967                           	opt stack 21
  3968                           
  3969                           ;fifo.c: 42: unsigned char v = fifo[fifoOut];
  3970                           
  3971                           ; BSR set to: 0
  3972                           ;incstack = 0
  3973  001148  5040               	movf	_fifoOut,w,c
  3974  00114A  0D01               	mullw	1
  3975  00114C  0E2B               	movlw	low _fifo
  3976  00114E  24F3               	addwf	prodl,w,c
  3977  001150  6ED9               	movwf	fsr2l,c
  3978  001152  0E00               	movlw	high _fifo
  3979  001154  20F4               	addwfc	prodh,w,c
  3980  001156  6EDA               	movwf	fsr2h,c
  3981  001158  50DF               	movf	indf2,w,c
  3982  00115A  0100               	movlb	0	; () banked
  3983  00115C  6FB7               	movwf	fifoGet@v& (0+255),b
  3984                           
  3985                           ; BSR set to: 0
  3986                           ;fifo.c: 45: return fifo[fifoOut++ & 0x0F];
  3987  00115E  2A40               	incf	_fifoOut,f,c
  3988  001160  0440               	decf	_fifoOut,w,c
  3989  001162  0B0F               	andlw	15
  3990  001164  0100               	movlb	0	; () banked
  3991  001166  6FB5               	movwf	??_fifoGet& (0+255),b
  3992  001168  6BB6               	clrf	(??_fifoGet+1)& (0+255),b
  3993  00116A  0E2B               	movlw	low _fifo
  3994  00116C  0100               	movlb	0	; () banked
  3995  00116E  25B5               	addwf	??_fifoGet& (0+255),w,b
  3996  001170  6ED9               	movwf	fsr2l,c
  3997  001172  0E00               	movlw	high _fifo
  3998  001174  0100               	movlb	0	; () banked
  3999  001176  21B6               	addwfc	(??_fifoGet+1)& (0+255),w,b
  4000  001178  6EDA               	movwf	fsr2h,c
  4001  00117A  50DF               	movf	indf2,w,c
  4002  00117C  0012               	return	
  4003  00117E                     __end_of_fifoGet:
  4004                           	opt stack 0
  4005                           tblptru	equ	0xFF8
  4006                           prodh	equ	0xFF4
  4007                           prodl	equ	0xFF3
  4008                           intcon	equ	0xFF2
  4009                           intcon2	equ	0xFF1
  4010                           postinc0	equ	0xFEE
  4011                           wreg	equ	0xFE8
  4012                           postdec1	equ	0xFE5
  4013                           fsr1h	equ	0xFE2
  4014                           fsr1l	equ	0xFE1
  4015                           indf2	equ	0xFDF
  4016                           fsr2h	equ	0xFDA
  4017                           fsr2l	equ	0xFD9
  4018                           status	equ	0xFD8
  4019                           
  4020 ;; *************** function _fifoEmpty *****************
  4021 ;; Defined at:
  4022 ;;		line 65 in file "fifo.c"
  4023 ;; Parameters:    Size  Location     Type
  4024 ;;		None
  4025 ;; Auto vars:     Size  Location     Type
  4026 ;;		None
  4027 ;; Return value:  Size  Location     Type
  4028 ;;                  1    wreg      unsigned char 
  4029 ;; Registers used:
  4030 ;;		wreg, status,2, status,0
  4031 ;; Tracked objects:
  4032 ;;		On entry : 0/0
  4033 ;;		On exit  : 0/0
  4034 ;;		Unchanged: 0/0
  4035 ;; Data sizes:     COMRAM   BANK0   BANK1   BANK2   BANK3   BANK4   BANK5
  4036 ;;      Params:         0       0       0       0       0       0       0
  4037 ;;      Locals:         0       0       0       0       0       0       0
  4038 ;;      Temps:          0       1       0       0       0       0       0
  4039 ;;      Totals:         0       1       0       0       0       0       0
  4040 ;;Total ram usage:        1 bytes
  4041 ;; Hardware stack levels used:    1
  4042 ;; Hardware stack levels required when called:    8
  4043 ;; This function calls:
  4044 ;;		Nothing
  4045 ;; This function is called by:
  4046 ;;		_main
  4047 ;; This function uses a non-reentrant model
  4048 ;;
  4049                           
  4050                           	psect	text25
  4051  0012C2                     __ptext25:
  4052                           	opt stack 0
  4053  0012C2                     _fifoEmpty:
  4054                           	opt stack 21
  4055                           
  4056                           ;fifo.c: 67: return (fifoIn & 0x0F) == (fifoOut & 0x0F);
  4057                           
  4058                           ; BSR set to: 0
  4059                           ;incstack = 0
  4060  0012C2  C040  F0B5         	movff	_fifoOut,??_fifoEmpty
  4061  0012C6  0E0F               	movlw	15
  4062  0012C8  0100               	movlb	0	; () banked
  4063  0012CA  17B5               	andwf	??_fifoEmpty& (0+255),f,b
  4064  0012CC  503F               	movf	_fifoIn,w,c
  4065  0012CE  0B0F               	andlw	15
  4066  0012D0  0100               	movlb	0	; () banked
  4067  0012D2  19B5               	xorwf	??_fifoEmpty& (0+255),w,b
  4068  0012D4  A4D8               	btfss	status,2,c
  4069  0012D6  D002               	goto	u4360
  4070  0012D8  0E01               	movlw	1
  4071  0012DA  0012               	return	
  4072  0012DC                     u4360:
  4073  0012DC  0E00               	movlw	0
  4074  0012DE  0012               	return	
  4075  0012E0                     __end_of_fifoEmpty:
  4076                           	opt stack 0
  4077                           tblptru	equ	0xFF8
  4078                           prodh	equ	0xFF4
  4079                           prodl	equ	0xFF3
  4080                           intcon	equ	0xFF2
  4081                           intcon2	equ	0xFF1
  4082                           postinc0	equ	0xFEE
  4083                           wreg	equ	0xFE8
  4084                           postdec1	equ	0xFE5
  4085                           fsr1h	equ	0xFE2
  4086                           fsr1l	equ	0xFE1
  4087                           indf2	equ	0xFDF
  4088                           fsr2h	equ	0xFDA
  4089                           fsr2l	equ	0xFD9
  4090                           status	equ	0xFD8
  4091                           
  4092 ;; *************** function _doDimStart *****************
  4093 ;; Defined at:
  4094 ;;		line 36 in file "scenes.c"
  4095 ;; Parameters:    Size  Location     Type
  4096 ;;  program         1    wreg     unsigned char 
  4097 ;; Auto vars:     Size  Location     Type
  4098 ;;  program         1   18[BANK0 ] unsigned char 
  4099 ;; Return value:  Size  Location     Type
  4100 ;;		None               void
  4101 ;; Registers used:
  4102 ;;		wreg, status,2
  4103 ;; Tracked objects:
  4104 ;;		On entry : 0/0
  4105 ;;		On exit  : 0/0
  4106 ;;		Unchanged: 0/0
  4107 ;; Data sizes:     COMRAM   BANK0   BANK1   BANK2   BANK3   BANK4   BANK5
  4108 ;;      Params:         0       0       0       0       0       0       0
  4109 ;;      Locals:         0       1       0       0       0       0       0
  4110 ;;      Temps:          0       0       0       0       0       0       0
  4111 ;;      Totals:         0       1       0       0       0       0       0
  4112 ;;Total ram usage:        1 bytes
  4113 ;; Hardware stack levels used:    1
  4114 ;; Hardware stack levels required when called:    8
  4115 ;; This function calls:
  4116 ;;		Nothing
  4117 ;; This function is called by:
  4118 ;;		_main
  4119 ;; This function uses a non-reentrant model
  4120 ;;
  4121                           
  4122                           	psect	text26
  4123  00131C                     __ptext26:
  4124                           	opt stack 0
  4125  00131C                     _doDimStart:
  4126                           	opt stack 21
  4127                           
  4128                           ; BSR set to: 0
  4129                           ;incstack = 0
  4130                           ;doDimStart@program stored from wreg
  4131  00131C  0100               	movlb	0	; () banked
  4132  00131E  6FB5               	movwf	doDimStart@program& (0+255),b
  4133                           
  4134                           ; BSR set to: 0
  4135                           ;scenes.c: 38: targetScene = program;
  4136  001320  C0B5  F041         	movff	doDimStart@program,_targetScene	;volatile
  4137                           
  4138                           ; BSR set to: 0
  4139                           ;scenes.c: 39: dimmingInProgress = 1;
  4140  001324  0E01               	movlw	1
  4141  001326  6E3D               	movwf	_dimmingInProgress,c	;volatile
  4142                           
  4143                           ; BSR set to: 0
  4144  001328  0012               	return	
  4145  00132A                     __end_of_doDimStart:
  4146                           	opt stack 0
  4147                           tblptru	equ	0xFF8
  4148                           prodh	equ	0xFF4
  4149                           prodl	equ	0xFF3
  4150                           intcon	equ	0xFF2
  4151                           intcon2	equ	0xFF1
  4152                           postinc0	equ	0xFEE
  4153                           wreg	equ	0xFE8
  4154                           postdec1	equ	0xFE5
  4155                           fsr1h	equ	0xFE2
  4156                           fsr1l	equ	0xFE1
  4157                           indf2	equ	0xFDF
  4158                           fsr2h	equ	0xFDA
  4159                           fsr2l	equ	0xFD9
  4160                           status	equ	0xFD8
  4161                           
  4162 ;; *************** function _buttonByteReceived *****************
  4163 ;; Defined at:
  4164 ;;		line 26 in file "protocol.c"
  4165 ;; Parameters:    Size  Location     Type
  4166 ;;  b               1    wreg     unsigned char 
  4167 ;; Auto vars:     Size  Location     Type
  4168 ;;  b               1   28[BANK0 ] unsigned char 
  4169 ;;  code            1   27[BANK0 ] unsigned char 
  4170 ;;  checksum        1   26[BANK0 ] unsigned char 
  4171 ;; Return value:  Size  Location     Type
  4172 ;;		None               void
  4173 ;; Registers used:
  4174 ;;		wreg, fsr2l, fsr2h, status,2, status,0, prodl, prodh, cstack
  4175 ;; Tracked objects:
  4176 ;;		On entry : 0/0
  4177 ;;		On exit  : 0/0
  4178 ;;		Unchanged: 0/0
  4179 ;; Data sizes:     COMRAM   BANK0   BANK1   BANK2   BANK3   BANK4   BANK5
  4180 ;;      Params:         0       0       0       0       0       0       0
  4181 ;;      Locals:         0       3       0       0       0       0       0
  4182 ;;      Temps:          0       1       0       0       0       0       0
  4183 ;;      Totals:         0       4       0       0       0       0       0
  4184 ;;Total ram usage:        4 bytes
  4185 ;; Hardware stack levels used:    1
  4186 ;; Hardware stack levels required when called:   10
  4187 ;; This function calls:
  4188 ;;		_decodeButton
  4189 ;; This function is called by:
  4190 ;;		_main
  4191 ;; This function uses a non-reentrant model
  4192 ;;
  4193                           
  4194                           	psect	text27
  4195  000B40                     __ptext27:
  4196                           	opt stack 0
  4197  000B40                     _buttonByteReceived:
  4198                           	opt stack 19
  4199                           
  4200                           ; BSR set to: 0
  4201                           ;incstack = 0
  4202                           ;buttonByteReceived@b stored from wreg
  4203  000B40  0100               	movlb	0	; () banked
  4204  000B42  6FBF               	movwf	buttonByteReceived@b& (0+255),b
  4205                           
  4206                           ; BSR set to: 0
  4207                           ;protocol.c: 29: unsigned char checksum;
  4208                           ;protocol.c: 30: unsigned char code;
  4209                           ;protocol.c: 38: if (protocolState == 0 && b == 0xF1 ) {
  4210  000B44  0100               	movlb	0	; () banked
  4211  000B46  67A2               	tstfsz	_protocolState& (0+255),b
  4212  000B48  D009               	goto	l3010
  4213                           
  4214                           ; BSR set to: 0
  4215  000B4A  0100               	movlb	0	; () banked
  4216  000B4C  51BF               	movf	buttonByteReceived@b& (0+255),w,b
  4217  000B4E  0AF1               	xorlw	241
  4218  000B50  A4D8               	btfss	status,2,c
  4219  000B52  D004               	goto	l3010
  4220                           
  4221                           ; BSR set to: 0
  4222                           ;protocol.c: 39: protocolState = 1;
  4223  000B54  0E01               	movlw	1
  4224  000B56  0100               	movlb	0	; () banked
  4225  000B58  6FA2               	movwf	_protocolState& (0+255),b
  4226  000B5A  0012               	return	
  4227  000B5C                     l3010:
  4228                           
  4229                           ; BSR set to: 0
  4230                           ;protocol.c: 41: }
  4231                           ;protocol.c: 43: if ( protocolState == 1 ) {
  4232  000B5C  0100               	movlb	0	; () banked
  4233  000B5E  05A2               	decf	_protocolState& (0+255),w,b
  4234  000B60  A4D8               	btfss	status,2,c
  4235  000B62  D00F               	goto	l3018
  4236                           
  4237                           ; BSR set to: 0
  4238                           ;protocol.c: 45: device = (b >> 4) & 0x0F;
  4239  000B64  0100               	movlb	0	; () banked
  4240  000B66  39BF               	swapf	buttonByteReceived@b& (0+255),w,b
  4241  000B68  0B0F               	andlw	15
  4242  000B6A  0B0F               	andlw	15
  4243  000B6C  0100               	movlb	0	; () banked
  4244  000B6E  6FA1               	movwf	_device& (0+255),b
  4245                           
  4246                           ;protocol.c: 46: button = b & 0x0F;
  4247  000B70  0100               	movlb	0	; () banked
  4248  000B72  51BF               	movf	buttonByteReceived@b& (0+255),w,b
  4249  000B74  0B0F               	andlw	15
  4250  000B76  0100               	movlb	0	; () banked
  4251  000B78  6FA0               	movwf	_button& (0+255),b
  4252                           
  4253                           ; BSR set to: 0
  4254                           ;protocol.c: 47: protocolState = 2;
  4255  000B7A  0E02               	movlw	2
  4256  000B7C  0100               	movlb	0	; () banked
  4257  000B7E  6FA2               	movwf	_protocolState& (0+255),b
  4258  000B80  0012               	return	
  4259  000B82                     l3018:
  4260                           
  4261                           ; BSR set to: 0
  4262                           ;protocol.c: 49: }
  4263                           ;protocol.c: 51: if ( protocolState == 2 ) {
  4264  000B82  0100               	movlb	0	; () banked
  4265  000B84  51A2               	movf	_protocolState& (0+255),w,b
  4266  000B86  0A02               	xorlw	2
  4267  000B88  A4D8               	btfss	status,2,c
  4268  000B8A  D01B               	goto	l3026
  4269                           
  4270                           ; BSR set to: 0
  4271                           ;protocol.c: 53: code = ((device << 4) & 0xF0) | (button & 0x0F);
  4272  000B8C  C0A0  F0BC         	movff	_button,??_buttonByteReceived
  4273  000B90  0E0F               	movlw	15
  4274  000B92  0100               	movlb	0	; () banked
  4275  000B94  17BC               	andwf	??_buttonByteReceived& (0+255),f,b
  4276  000B96  0100               	movlb	0	; () banked
  4277  000B98  39A1               	swapf	_device& (0+255),w,b
  4278  000B9A  0BF0               	andlw	240
  4279  000B9C  0BF0               	andlw	240
  4280  000B9E  0100               	movlb	0	; () banked
  4281  000BA0  11BC               	iorwf	??_buttonByteReceived& (0+255),w,b
  4282  000BA2  0100               	movlb	0	; () banked
  4283  000BA4  6FBE               	movwf	buttonByteReceived@code& (0+255),b
  4284                           
  4285                           ;protocol.c: 54: checksum = 0xF1 ^ code ;
  4286  000BA6  0100               	movlb	0	; () banked
  4287  000BA8  51BE               	movf	buttonByteReceived@code& (0+255),w,b
  4288  000BAA  0AF1               	xorlw	241
  4289  000BAC  0100               	movlb	0	; () banked
  4290  000BAE  6FBD               	movwf	buttonByteReceived@checksum& (0+255),b
  4291                           
  4292                           ; BSR set to: 0
  4293                           ;protocol.c: 56: if ( checksum == b) {
  4294  000BB0  0100               	movlb	0	; () banked
  4295  000BB2  51BF               	movf	buttonByteReceived@b& (0+255),w,b
  4296  000BB4  0100               	movlb	0	; () banked
  4297  000BB6  63BD               	cpfseq	buttonByteReceived@checksum& (0+255),b
  4298  000BB8  D004               	goto	l3026
  4299                           
  4300                           ; BSR set to: 0
  4301                           ;protocol.c: 58: decodeButton(code);
  4302  000BBA  0100               	movlb	0	; () banked
  4303  000BBC  51BE               	movf	buttonByteReceived@code& (0+255),w,b
  4304  000BBE  ECEF  F008         	call	_decodeButton
  4305  000BC2                     l3026:
  4306                           
  4307                           ;protocol.c: 60: }
  4308                           ;protocol.c: 61: }
  4309                           ;protocol.c: 63: protocolState = 0;
  4310  000BC2  0E00               	movlw	0
  4311  000BC4  0100               	movlb	0	; () banked
  4312  000BC6  6FA2               	movwf	_protocolState& (0+255),b
  4313                           
  4314                           ; BSR set to: 0
  4315  000BC8  0012               	return	
  4316  000BCA                     __end_of_buttonByteReceived:
  4317                           	opt stack 0
  4318                           tblptru	equ	0xFF8
  4319                           prodh	equ	0xFF4
  4320                           prodl	equ	0xFF3
  4321                           intcon	equ	0xFF2
  4322                           intcon2	equ	0xFF1
  4323                           postinc0	equ	0xFEE
  4324                           wreg	equ	0xFE8
  4325                           postdec1	equ	0xFE5
  4326                           fsr1h	equ	0xFE2
  4327                           fsr1l	equ	0xFE1
  4328                           indf2	equ	0xFDF
  4329                           fsr2h	equ	0xFDA
  4330                           fsr2l	equ	0xFD9
  4331                           status	equ	0xFD8
  4332                           
  4333 ;; *************** function _decodeButton *****************
  4334 ;; Defined at:
  4335 ;;		line 159 in file "buttons.c"
  4336 ;; Parameters:    Size  Location     Type
  4337 ;;  code            1    wreg     unsigned char 
  4338 ;; Auto vars:     Size  Location     Type
  4339 ;;  code            1   22[BANK0 ] unsigned char 
  4340 ;;  bp              2   23[BANK0 ] PTR struct button
  4341 ;;		 -> NULL(0), buttons(256), 
  4342 ;; Return value:  Size  Location     Type
  4343 ;;		None               void
  4344 ;; Registers used:
  4345 ;;		wreg, fsr2l, fsr2h, status,2, status,0, prodl, prodh, cstack
  4346 ;; Tracked objects:
  4347 ;;		On entry : 0/0
  4348 ;;		On exit  : 0/0
  4349 ;;		Unchanged: 0/0
  4350 ;; Data sizes:     COMRAM   BANK0   BANK1   BANK2   BANK3   BANK4   BANK5
  4351 ;;      Params:         0       0       0       0       0       0       0
  4352 ;;      Locals:         0       3       0       0       0       0       0
  4353 ;;      Temps:          0       0       0       0       0       0       0
  4354 ;;      Totals:         0       3       0       0       0       0       0
  4355 ;;Total ram usage:        3 bytes
  4356 ;; Hardware stack levels used:    1
  4357 ;; Hardware stack levels required when called:    9
  4358 ;; This function calls:
  4359 ;;		_buttonReceived
  4360 ;;		_findButton
  4361 ;; This function is called by:
  4362 ;;		_buttonByteReceived
  4363 ;; This function uses a non-reentrant model
  4364 ;;
  4365                           
  4366                           	psect	text28
  4367  0011DE                     __ptext28:
  4368                           	opt stack 0
  4369  0011DE                     _decodeButton:
  4370                           	opt stack 19
  4371                           
  4372                           ; BSR set to: 0
  4373                           ;incstack = 0
  4374                           ;decodeButton@code stored from wreg
  4375  0011DE  0100               	movlb	0	; () banked
  4376  0011E0  6FB9               	movwf	decodeButton@code& (0+255),b
  4377                           
  4378                           ; BSR set to: 0
  4379                           ;buttons.c: 161: BUTTON *bp = findButton((BUTTONNUMBER)code);
  4380  0011E2  0100               	movlb	0	; () banked
  4381  0011E4  51B9               	movf	decodeButton@code& (0+255),w,b
  4382  0011E6  EC04  F007         	call	_findButton
  4383  0011EA  0100               	movlb	0	; () banked
  4384  0011EC  C0B5  F0BA         	movff	?_findButton,decodeButton@bp
  4385  0011F0  0100               	movlb	0	; () banked
  4386  0011F2  C0B6  F0BB         	movff	?_findButton+1,decodeButton@bp+1
  4387                           
  4388                           ; BSR set to: 0
  4389                           ;buttons.c: 162: buttonReceived(bp);
  4390  0011F6  0100               	movlb	0	; () banked
  4391  0011F8  C0BB  F0B6         	movff	decodeButton@bp+1,buttonReceived@bp+1
  4392  0011FC  0100               	movlb	0	; () banked
  4393  0011FE  C0BA  F0B5         	movff	decodeButton@bp,buttonReceived@bp
  4394  001202  EC37  F008         	call	_buttonReceived	;wreg free
  4395  001206  0012               	return	
  4396  001208                     __end_of_decodeButton:
  4397                           	opt stack 0
  4398                           tblptru	equ	0xFF8
  4399                           prodh	equ	0xFF4
  4400                           prodl	equ	0xFF3
  4401                           intcon	equ	0xFF2
  4402                           intcon2	equ	0xFF1
  4403                           postinc0	equ	0xFEE
  4404                           wreg	equ	0xFE8
  4405                           postdec1	equ	0xFE5
  4406                           fsr1h	equ	0xFE2
  4407                           fsr1l	equ	0xFE1
  4408                           indf2	equ	0xFDF
  4409                           fsr2h	equ	0xFDA
  4410                           fsr2l	equ	0xFD9
  4411                           status	equ	0xFD8
  4412                           
  4413 ;; *************** function _findButton *****************
  4414 ;; Defined at:
  4415 ;;		line 95 in file "buttons.c"
  4416 ;; Parameters:    Size  Location     Type
  4417 ;;  code            1    wreg     unsigned char 
  4418 ;; Auto vars:     Size  Location     Type
  4419 ;;  code            1   20[BANK0 ] unsigned char 
  4420 ;;  i               1   21[BANK0 ] unsigned char 
  4421 ;; Return value:  Size  Location     Type
  4422 ;;                  2   18[BANK0 ] PTR struct button
  4423 ;; Registers used:
  4424 ;;		wreg, fsr2l, fsr2h, status,2, status,0, prodl, prodh
  4425 ;; Tracked objects:
  4426 ;;		On entry : 0/0
  4427 ;;		On exit  : 0/0
  4428 ;;		Unchanged: 0/0
  4429 ;; Data sizes:     COMRAM   BANK0   BANK1   BANK2   BANK3   BANK4   BANK5
  4430 ;;      Params:         0       2       0       0       0       0       0
  4431 ;;      Locals:         0       2       0       0       0       0       0
  4432 ;;      Temps:          0       0       0       0       0       0       0
  4433 ;;      Totals:         0       4       0       0       0       0       0
  4434 ;;Total ram usage:        4 bytes
  4435 ;; Hardware stack levels used:    1
  4436 ;; Hardware stack levels required when called:    8
  4437 ;; This function calls:
  4438 ;;		Nothing
  4439 ;; This function is called by:
  4440 ;;		_decodeButton
  4441 ;; This function uses a non-reentrant model
  4442 ;;
  4443                           
  4444                           	psect	text29
  4445  000E08                     __ptext29:
  4446                           	opt stack 0
  4447  000E08                     _findButton:
  4448                           	opt stack 19
  4449                           
  4450                           ;incstack = 0
  4451                           ;findButton@code stored from wreg
  4452  000E08  0100               	movlb	0	; () banked
  4453  000E0A  6FB7               	movwf	findButton@code& (0+255),b
  4454                           
  4455                           ; BSR set to: 0
  4456                           ;buttons.c: 97: BUTTONINDEX i;
  4457                           ;buttons.c: 99: for ( i = 0; i < 64; i++) {
  4458  000E0C  0E00               	movlw	0
  4459  000E0E  0100               	movlb	0	; () banked
  4460  000E10  6FB8               	movwf	findButton@i& (0+255),b
  4461  000E12  D01F               	goto	L3
  4462  000E14                     l2698:
  4463                           
  4464                           ; BSR set to: 0
  4465                           ;buttons.c: 101: if ( buttons[i].buttonNumber == code)
  4466  000E14  0100               	movlb	0	; () banked
  4467  000E16  51B8               	movf	findButton@i& (0+255),w,b
  4468  000E18  0D04               	mullw	4
  4469  000E1A  0101               	movlb	1	; () banked
  4470  000E1C  0E00               	movlw	low _buttons
  4471  000E1E  24F3               	addwf	prodl,w,c
  4472  000E20  6ED9               	movwf	fsr2l,c
  4473  000E22  0101               	movlb	1	; () banked
  4474  000E24  0E01               	movlw	high _buttons
  4475  000E26  20F4               	addwfc	prodh,w,c
  4476  000E28  6EDA               	movwf	fsr2h,c
  4477  000E2A  0100               	movlb	0	; () banked
  4478  000E2C  51B7               	movf	findButton@code& (0+255),w,b
  4479  000E2E  62DF               	cpfseq	indf2,c
  4480  000E30  D00E               	goto	l2704
  4481                           
  4482                           ; BSR set to: 0
  4483                           ;buttons.c: 102: return &buttons[i];
  4484  000E32  0100               	movlb	0	; () banked
  4485  000E34  51B8               	movf	findButton@i& (0+255),w,b
  4486  000E36  0D04               	mullw	4
  4487  000E38  0101               	movlb	1	; () banked
  4488  000E3A  0E00               	movlw	low _buttons
  4489  000E3C  24F3               	addwf	prodl,w,c
  4490  000E3E  0100               	movlb	0	; () banked
  4491  000E40  6FB5               	movwf	?_findButton& (0+255),b
  4492  000E42  0101               	movlb	1	; () banked
  4493  000E44  0E01               	movlw	high _buttons
  4494  000E46  20F4               	addwfc	prodh,w,c
  4495  000E48  0100               	movlb	0	; () banked
  4496  000E4A  6FB6               	movwf	(?_findButton+1)& (0+255),b
  4497  000E4C  0012               	return	
  4498  000E4E                     l2704:
  4499                           
  4500                           ; BSR set to: 0
  4501  000E4E  0100               	movlb	0	; () banked
  4502  000E50  2BB8               	incf	findButton@i& (0+255),f,b
  4503  000E52                     L3:
  4504                           
  4505                           ; BSR set to: 0
  4506  000E52  0E3F               	movlw	63
  4507  000E54  0100               	movlb	0	; () banked
  4508  000E56  65B8               	cpfsgt	findButton@i& (0+255),b
  4509  000E58  D7DD               	goto	l2698
  4510                           
  4511                           ; BSR set to: 0
  4512                           ;buttons.c: 103: }
  4513                           ;buttons.c: 104: return (BUTTON*) 0;
  4514                           
  4515                           ; BSR set to: 0
  4516  000E5A  0E00               	movlw	0
  4517  000E5C  0100               	movlb	0	; () banked
  4518  000E5E  6FB6               	movwf	(?_findButton+1)& (0+255),b
  4519  000E60  0E00               	movlw	0
  4520  000E62  0100               	movlb	0	; () banked
  4521  000E64  6FB5               	movwf	?_findButton& (0+255),b
  4522  000E66  0012               	return	
  4523  000E68                     __end_of_findButton:
  4524                           	opt stack 0
  4525                           tblptru	equ	0xFF8
  4526                           prodh	equ	0xFF4
  4527                           prodl	equ	0xFF3
  4528                           intcon	equ	0xFF2
  4529                           intcon2	equ	0xFF1
  4530                           postinc0	equ	0xFEE
  4531                           wreg	equ	0xFE8
  4532                           postdec1	equ	0xFE5
  4533                           fsr1h	equ	0xFE2
  4534                           fsr1l	equ	0xFE1
  4535                           indf2	equ	0xFDF
  4536                           fsr2h	equ	0xFDA
  4537                           fsr2l	equ	0xFD9
  4538                           status	equ	0xFD8
  4539                           
  4540 ;; *************** function _buttonReceived *****************
  4541 ;; Defined at:
  4542 ;;		line 149 in file "buttons.c"
  4543 ;; Parameters:    Size  Location     Type
  4544 ;;  bp              2   18[BANK0 ] PTR struct button
  4545 ;;		 -> NULL(0), buttons(256), 
  4546 ;; Auto vars:     Size  Location     Type
  4547 ;;		None
  4548 ;; Return value:  Size  Location     Type
  4549 ;;		None               void
  4550 ;; Registers used:
  4551 ;;		wreg, fsr2l, fsr2h, status,2, status,0
  4552 ;; Tracked objects:
  4553 ;;		On entry : 0/0
  4554 ;;		On exit  : 0/0
  4555 ;;		Unchanged: 0/0
  4556 ;; Data sizes:     COMRAM   BANK0   BANK1   BANK2   BANK3   BANK4   BANK5
  4557 ;;      Params:         0       2       0       0       0       0       0
  4558 ;;      Locals:         0       0       0       0       0       0       0
  4559 ;;      Temps:          0       0       0       0       0       0       0
  4560 ;;      Totals:         0       2       0       0       0       0       0
  4561 ;;Total ram usage:        2 bytes
  4562 ;; Hardware stack levels used:    1
  4563 ;; Hardware stack levels required when called:    8
  4564 ;; This function calls:
  4565 ;;		Nothing
  4566 ;; This function is called by:
  4567 ;;		_decodeButton
  4568 ;; This function uses a non-reentrant model
  4569 ;;
  4570                           
  4571                           	psect	text30
  4572  00106E                     __ptext30:
  4573                           	opt stack 0
  4574  00106E                     _buttonReceived:
  4575                           	opt stack 19
  4576                           
  4577                           ;buttons.c: 151: if ( bp == 0)
  4578                           
  4579                           ; BSR set to: 0
  4580                           ;incstack = 0
  4581  00106E  0100               	movlb	0	; () banked
  4582  001070  51B6               	movf	(buttonReceived@bp+1)& (0+255),w,b
  4583  001072  11B5               	iorwf	buttonReceived@bp& (0+255),w,b
  4584  001074  B4D8               	btfsc	status,2,c
  4585  001076  0012               	return	
  4586                           
  4587                           ; BSR set to: 0
  4588                           ;buttons.c: 154: bp -> isActive = 1;
  4589                           
  4590                           ; BSR set to: 0
  4591                           
  4592                           ; BSR set to: 0
  4593                           ;buttons.c: 152: return;
  4594  001078  0100               	movlb	0	; () banked
  4595  00107A  EE20 F002          	lfsr	2,2
  4596  00107E  0100               	movlb	0	; () banked
  4597  001080  51B5               	movf	buttonReceived@bp& (0+255),w,b
  4598  001082  26D9               	addwf	fsr2l,f,c
  4599  001084  0100               	movlb	0	; () banked
  4600  001086  51B6               	movf	(buttonReceived@bp+1)& (0+255),w,b
  4601  001088  22DA               	addwfc	fsr2h,f,c
  4602  00108A  0E01               	movlw	1
  4603  00108C  6EDF               	movwf	indf2,c
  4604                           
  4605                           ;buttons.c: 155: bp -> watchdog = 0;
  4606  00108E  0100               	movlb	0	; () banked
  4607  001090  EE20 F003          	lfsr	2,3
  4608  001094  0100               	movlb	0	; () banked
  4609  001096  51B5               	movf	buttonReceived@bp& (0+255),w,b
  4610  001098  26D9               	addwf	fsr2l,f,c
  4611  00109A  0100               	movlb	0	; () banked
  4612  00109C  51B6               	movf	(buttonReceived@bp+1)& (0+255),w,b
  4613  00109E  22DA               	addwfc	fsr2h,f,c
  4614  0010A0  0E00               	movlw	0
  4615  0010A2  6EDF               	movwf	indf2,c
  4616                           
  4617                           ; BSR set to: 0
  4618  0010A4  0012               	return	
  4619  0010A6                     __end_of_buttonReceived:
  4620                           	opt stack 0
  4621                           tblptru	equ	0xFF8
  4622                           prodh	equ	0xFF4
  4623                           prodl	equ	0xFF3
  4624                           intcon	equ	0xFF2
  4625                           intcon2	equ	0xFF1
  4626                           postinc0	equ	0xFEE
  4627                           wreg	equ	0xFE8
  4628                           postdec1	equ	0xFE5
  4629                           fsr1h	equ	0xFE2
  4630                           fsr1l	equ	0xFE1
  4631                           indf2	equ	0xFDF
  4632                           fsr2h	equ	0xFDA
  4633                           fsr2l	equ	0xFD9
  4634                           status	equ	0xFD8
  4635                           
  4636 ;; *************** function _low_isr *****************
  4637 ;; Defined at:
  4638 ;;		line 46 in file "interrupts.c"
  4639 ;; Parameters:    Size  Location     Type
  4640 ;;		None
  4641 ;; Auto vars:     Size  Location     Type
  4642 ;;		None
  4643 ;; Return value:  Size  Location     Type
  4644 ;;		None               void
  4645 ;; Registers used:
  4646 ;;		wreg, fsr2l, fsr2h, status,2, status,0, prodl, prodh, cstack
  4647 ;; Tracked objects:
  4648 ;;		On entry : 0/0
  4649 ;;		On exit  : 0/0
  4650 ;;		Unchanged: 0/0
  4651 ;; Data sizes:     COMRAM   BANK0   BANK1   BANK2   BANK3   BANK4   BANK5
  4652 ;;      Params:         0       0       0       0       0       0       0
  4653 ;;      Locals:         0       0       0       0       0       0       0
  4654 ;;      Temps:         17       0       0       0       0       0       0
  4655 ;;      Totals:        17       0       0       0       0       0       0
  4656 ;;Total ram usage:       17 bytes
  4657 ;; Hardware stack levels used:    1
  4658 ;; Hardware stack levels required when called:    7
  4659 ;; This function calls:
  4660 ;;		_doDimStep
  4661 ;;		_sendDMX
  4662 ;; This function is called by:
  4663 ;;		Interrupt level 1
  4664 ;; This function uses a non-reentrant model
  4665 ;;
  4666                           
  4667                           	psect	intcodelo
  4668  000018                     __pintcodelo:
  4669                           	opt stack 0
  4670  000018                     _low_isr:
  4671                           	opt stack 17
  4672                           
  4673                           ; BSR set to: 0
  4674                           ;incstack = 0
  4675  000018  CFD8 F01A          	movff	status,??_low_isr
  4676  00001C  CFE8 F01B          	movff	wreg,??_low_isr+1
  4677  000020  CFE0 F01C          	movff	bsr,??_low_isr+2
  4678  000024  CFFA F01D          	movff	pclath,??_low_isr+3
  4679  000028  CFFB F01E          	movff	pclatu,??_low_isr+4
  4680  00002C  CFE9 F01F          	movff	fsr0l,??_low_isr+5
  4681  000030  CFEA F020          	movff	fsr0h,??_low_isr+6
  4682  000034  CFE1 F021          	movff	fsr1l,??_low_isr+7
  4683  000038  CFE2 F022          	movff	fsr1h,??_low_isr+8
  4684  00003C  CFD9 F023          	movff	fsr2l,??_low_isr+9
  4685  000040  CFDA F024          	movff	fsr2h,??_low_isr+10
  4686  000044  CFF3 F025          	movff	prodl,??_low_isr+11
  4687  000048  CFF4 F026          	movff	prodh,??_low_isr+12
  4688  00004C  CFF6 F027          	movff	tblptrl,??_low_isr+13
  4689  000050  CFF7 F028          	movff	tblptrh,??_low_isr+14
  4690  000054  CFF8 F029          	movff	tblptru,??_low_isr+15
  4691  000058  CFF5 F02A          	movff	tablat,??_low_isr+16
  4692                           
  4693                           ;interrupts.c: 53: if ( PIR1bits.TMR1IF == 1 ) {
  4694  00005C  A09E               	btfss	3998,0,c	;volatile
  4695  00005E  D003               	goto	i1l2488
  4696                           
  4697                           ;interrupts.c: 54: sendDMX();
  4698  000060  EC11  F004         	call	_sendDMX	;wreg free
  4699                           
  4700                           ;interrupts.c: 55: PIR1bits.TMR1IF = 0;
  4701  000064  909E               	bcf	3998,0,c	;volatile
  4702  000066                     i1l2488:
  4703                           
  4704                           ;interrupts.c: 56: }
  4705                           ;interrupts.c: 58: if ( PIR2bits.TMR3IF == 1 ) {
  4706  000066  A2A1               	btfss	4001,1,c	;volatile
  4707  000068  D007               	goto	i1l32
  4708                           
  4709                           ;interrupts.c: 59: doDimStep();
  4710  00006A  ECB7  F004         	call	_doDimStep	;wreg free
  4711                           
  4712                           ;interrupts.c: 61: TMR3L = 0x00;
  4713  00006E  0E00               	movlw	0
  4714  000070  6EB2               	movwf	4018,c	;volatile
  4715                           
  4716                           ;interrupts.c: 62: TMR3H = 0x00;
  4717  000072  0E00               	movlw	0
  4718  000074  6EB3               	movwf	4019,c	;volatile
  4719                           
  4720                           ;interrupts.c: 64: PIR2bits.TMR3IF = 0;
  4721  000076  92A1               	bcf	4001,1,c	;volatile
  4722  000078                     i1l32:
  4723  000078  C02A  FFF5         	movff	??_low_isr+16,tablat
  4724  00007C  C029  FFF8         	movff	??_low_isr+15,tblptru
  4725  000080  C028  FFF7         	movff	??_low_isr+14,tblptrh
  4726  000084  C027  FFF6         	movff	??_low_isr+13,tblptrl
  4727  000088  C026  FFF4         	movff	??_low_isr+12,prodh
  4728  00008C  C025  FFF3         	movff	??_low_isr+11,prodl
  4729  000090  C024  FFDA         	movff	??_low_isr+10,fsr2h
  4730  000094  C023  FFD9         	movff	??_low_isr+9,fsr2l
  4731  000098  C022  FFE2         	movff	??_low_isr+8,fsr1h
  4732  00009C  C021  FFE1         	movff	??_low_isr+7,fsr1l
  4733  0000A0  C020  FFEA         	movff	??_low_isr+6,fsr0h
  4734  0000A4  C01F  FFE9         	movff	??_low_isr+5,fsr0l
  4735  0000A8  C01E  FFFB         	movff	??_low_isr+4,pclatu
  4736  0000AC  C01D  FFFA         	movff	??_low_isr+3,pclath
  4737  0000B0  C01C  FFE0         	movff	??_low_isr+2,bsr
  4738  0000B4  C01B  FFE8         	movff	??_low_isr+1,wreg
  4739  0000B8  C01A  FFD8         	movff	??_low_isr,status
  4740  0000BC  0010               	retfie	
  4741  0000BE                     __end_of_low_isr:
  4742                           	opt stack 0
  4743                           pclatu	equ	0xFFB
  4744                           pclath	equ	0xFFA
  4745                           tblptru	equ	0xFF8
  4746                           tblptrh	equ	0xFF7
  4747                           tblptrl	equ	0xFF6
  4748                           tablat	equ	0xFF5
  4749                           prodh	equ	0xFF4
  4750                           prodl	equ	0xFF3
  4751                           intcon	equ	0xFF2
  4752                           intcon2	equ	0xFF1
  4753                           postinc0	equ	0xFEE
  4754                           fsr0h	equ	0xFEA
  4755                           fsr0l	equ	0xFE9
  4756                           wreg	equ	0xFE8
  4757                           postdec1	equ	0xFE5
  4758                           fsr1h	equ	0xFE2
  4759                           fsr1l	equ	0xFE1
  4760                           bsr	equ	0xFE0
  4761                           indf2	equ	0xFDF
  4762                           fsr2h	equ	0xFDA
  4763                           fsr2l	equ	0xFD9
  4764                           status	equ	0xFD8
  4765                           
  4766 ;; *************** function _sendDMX *****************
  4767 ;; Defined at:
  4768 ;;		line 51 in file "dmx.c"
  4769 ;; Parameters:    Size  Location     Type
  4770 ;;		None
  4771 ;; Auto vars:     Size  Location     Type
  4772 ;;		None
  4773 ;; Return value:  Size  Location     Type
  4774 ;;		None               void
  4775 ;; Registers used:
  4776 ;;		wreg, fsr2l, fsr2h, status,2, status,0, prodl, prodh
  4777 ;; Tracked objects:
  4778 ;;		On entry : 0/0
  4779 ;;		On exit  : 0/0
  4780 ;;		Unchanged: 0/0
  4781 ;; Data sizes:     COMRAM   BANK0   BANK1   BANK2   BANK3   BANK4   BANK5
  4782 ;;      Params:         0       0       0       0       0       0       0
  4783 ;;      Locals:         2       0       0       0       0       0       0
  4784 ;;      Temps:          1       0       0       0       0       0       0
  4785 ;;      Totals:         3       0       0       0       0       0       0
  4786 ;;Total ram usage:        3 bytes
  4787 ;; Hardware stack levels used:    1
  4788 ;; Hardware stack levels required when called:    2
  4789 ;; This function calls:
  4790 ;;		Nothing
  4791 ;; This function is called by:
  4792 ;;		_low_isr
  4793 ;; This function uses a non-reentrant model
  4794 ;;
  4795                           
  4796                           	psect	text32
  4797  000822                     __ptext32:
  4798                           	opt stack 0
  4799  000822                     _sendDMX:
  4800                           	opt stack 21
  4801                           
  4802                           ;dmx.c: 53: switch( dmxSendState ) {
  4803                           
  4804                           ;incstack = 0
  4805  000822  D046               	goto	i1l2330
  4806  000824                     i1l2292:
  4807                           
  4808                           ;dmx.c: 57: TMR1L = 256-100;
  4809  000824  0E9C               	movlw	156
  4810  000826  6ECE               	movwf	4046,c	;volatile
  4811                           
  4812                           ;dmx.c: 58: TRISCbits.TRISC5 = 0;
  4813  000828  9A94               	bcf	3988,5,c	;volatile
  4814                           
  4815                           ;dmx.c: 59: LATCbits.LATC5 = 0;
  4816  00082A  9A8B               	bcf	3979,5,c	;volatile
  4817                           
  4818                           ;dmx.c: 60: dmxSendState = 3;
  4819  00082C  0E03               	movlw	3
  4820  00082E  6E3E               	movwf	_dmxSendState,c
  4821  000830  0012               	return	
  4822  000832                     i1l2300:
  4823                           
  4824                           ;dmx.c: 65: if ( dataCounter >= 512) {
  4825  000832  0E00               	movlw	0
  4826  000834  5C3B               	subwf	_dataCounter,w,c
  4827  000836  0E02               	movlw	2
  4828  000838  583C               	subwfb	_dataCounter+1,w,c
  4829  00083A  A0D8               	btfss	status,0,c
  4830  00083C  D005               	goto	i1l150
  4831                           
  4832                           ;dmx.c: 66: TMR1L = 256-100;
  4833  00083E  0E9C               	movlw	156
  4834  000840  6ECE               	movwf	4046,c	;volatile
  4835                           
  4836                           ;dmx.c: 67: dmxSendState = 0;
  4837  000842  0E00               	movlw	0
  4838  000844  6E3E               	movwf	_dmxSendState,c
  4839  000846  0012               	return	
  4840  000848                     i1l150:
  4841                           
  4842                           ;dmx.c: 69: }
  4843                           ;dmx.c: 71: if ( PIR1bits.TXIF == 1)
  4844  000848  B89E               	btfsc	3998,4,c	;volatile
  4845  00084A  0012               	return	
  4846                           
  4847                           ;dmx.c: 74: TXREG = dataCounter++ < 64 ? channelLevel[(unsigned char)dataCounter] : 0;
  4848                           
  4849                           ;dmx.c: 72: return;
  4850  00084C  4A3B               	infsnz	_dataCounter,f,c
  4851  00084E  2A3C               	incf	_dataCounter+1,f,c
  4852  000850  0E41               	movlw	65
  4853  000852  5C3B               	subwf	_dataCounter& (0+255),w,c
  4854  000854  0E00               	movlw	0
  4855  000856  583C               	subwfb	(_dataCounter+1)& (0+255),w,c
  4856  000858  A0D8               	btfss	status,0,c
  4857  00085A  D005               	goto	i1l2312
  4858  00085C  0E00               	movlw	0
  4859  00085E  6E03               	movwf	_sendDMX$997+1,c
  4860  000860  0E00               	movlw	0
  4861  000862  6E02               	movwf	_sendDMX$997,c
  4862  000864  D00F               	goto	i1l2314
  4863  000866                     i1l2312:
  4864  000866  503B               	movf	_dataCounter,w,c
  4865  000868  0D01               	mullw	1
  4866  00086A  0100               	movlb	0	; () banked
  4867  00086C  0E60               	movlw	low _channelLevel
  4868  00086E  24F3               	addwf	prodl,w,c
  4869  000870  6ED9               	movwf	fsr2l,c
  4870  000872  0100               	movlb	0	; () banked
  4871  000874  0E00               	movlw	high _channelLevel
  4872  000876  20F4               	addwfc	prodh,w,c
  4873  000878  6EDA               	movwf	fsr2h,c
  4874  00087A  50DF               	movf	indf2,w,c
  4875  00087C  6E01               	movwf	??_sendDMX& (0+255),c
  4876  00087E  5001               	movf	??_sendDMX,w,c
  4877  000880  6E02               	movwf	_sendDMX$997,c
  4878  000882  6A03               	clrf	_sendDMX$997+1,c
  4879  000884                     i1l2314:
  4880  000884  C002  FFAD         	movff	_sendDMX$997,4013	;volatile
  4881                           
  4882                           ;dmx.c: 75: TMR1L = 256-60;
  4883  000888  0EC4               	movlw	196
  4884  00088A  6ECE               	movwf	4046,c	;volatile
  4885  00088C  0012               	return	
  4886  00088E                     i1l2320:
  4887                           
  4888                           ;dmx.c: 79: dataCounter = 0;
  4889  00088E  0E00               	movlw	0
  4890  000890  6E3C               	movwf	_dataCounter+1,c
  4891  000892  0E00               	movlw	0
  4892  000894  6E3B               	movwf	_dataCounter,c
  4893                           
  4894                           ;dmx.c: 80: TXREG = 0;
  4895  000896  0E00               	movlw	0
  4896  000898  6EAD               	movwf	4013,c	;volatile
  4897                           
  4898                           ;dmx.c: 81: TMR1L = 256-60;
  4899  00089A  0EC4               	movlw	196
  4900  00089C  6ECE               	movwf	4046,c	;volatile
  4901                           
  4902                           ;dmx.c: 82: dmxSendState = 1;
  4903  00089E  0E01               	movlw	1
  4904  0008A0  6E3E               	movwf	_dmxSendState,c
  4905  0008A2  0012               	return	
  4906  0008A4                     i1l157:
  4907                           
  4908                           ;dmx.c: 86: TRISCbits.TRISC5 = 1;
  4909  0008A4  8A94               	bsf	3988,5,c	;volatile
  4910                           
  4911                           ;dmx.c: 87: TMR1L = 256-100;
  4912  0008A6  0E9C               	movlw	156
  4913  0008A8  6ECE               	movwf	4046,c	;volatile
  4914                           
  4915                           ;dmx.c: 88: dmxSendState = 2;
  4916  0008AA  0E02               	movlw	2
  4917  0008AC  6E3E               	movwf	_dmxSendState,c
  4918  0008AE  0012               	return	
  4919  0008B0                     i1l2330:
  4920  0008B0  503E               	movf	_dmxSendState,w,c
  4921                           
  4922                           ; Switch size 1, requested type "space"
  4923                           ; Number of cases is 4, Range of values is 0 to 3
  4924                           ; switch strategies available:
  4925                           ; Name         Instructions Cycles
  4926                           ; simple_byte           13     7 (average)
  4927                           ;	Chosen strategy is simple_byte
  4928  0008B2  0A00               	xorlw	0	; case 0
  4929  0008B4  B4D8               	btfsc	status,2,c
  4930  0008B6  D7B6               	goto	i1l2292
  4931  0008B8  0A01               	xorlw	1	; case 1
  4932  0008BA  B4D8               	btfsc	status,2,c
  4933  0008BC  D7BA               	goto	i1l2300
  4934  0008BE  0A03               	xorlw	3	; case 2
  4935  0008C0  B4D8               	btfsc	status,2,c
  4936  0008C2  D7E5               	goto	i1l2320
  4937  0008C4  0A01               	xorlw	1	; case 3
  4938  0008C6  A4D8               	btfss	status,2,c
  4939  0008C8  0012               	return	
  4940  0008CA  D7EC               	goto	i1l157
  4941  0008CC                     __end_of_sendDMX:
  4942                           	opt stack 0
  4943                           pclatu	equ	0xFFB
  4944                           pclath	equ	0xFFA
  4945                           tblptru	equ	0xFF8
  4946                           tblptrh	equ	0xFF7
  4947                           tblptrl	equ	0xFF6
  4948                           tablat	equ	0xFF5
  4949                           prodh	equ	0xFF4
  4950                           prodl	equ	0xFF3
  4951                           intcon	equ	0xFF2
  4952                           intcon2	equ	0xFF1
  4953                           postinc0	equ	0xFEE
  4954                           fsr0h	equ	0xFEA
  4955                           fsr0l	equ	0xFE9
  4956                           wreg	equ	0xFE8
  4957                           postdec1	equ	0xFE5
  4958                           fsr1h	equ	0xFE2
  4959                           fsr1l	equ	0xFE1
  4960                           bsr	equ	0xFE0
  4961                           indf2	equ	0xFDF
  4962                           fsr2h	equ	0xFDA
  4963                           fsr2l	equ	0xFD9
  4964                           status	equ	0xFD8
  4965                           
  4966 ;; *************** function _doDimStep *****************
  4967 ;; Defined at:
  4968 ;;		line 46 in file "scenes.c"
  4969 ;; Parameters:    Size  Location     Type
  4970 ;;		None
  4971 ;; Auto vars:     Size  Location     Type
  4972 ;;  sc              3   21[COMRAM] struct _scenechannel
  4973 ;;  i               1   24[COMRAM] unsigned char 
  4974 ;; Return value:  Size  Location     Type
  4975 ;;		None               void
  4976 ;; Registers used:
  4977 ;;		wreg, fsr2l, fsr2h, status,2, status,0, prodl, prodh, cstack
  4978 ;; Tracked objects:
  4979 ;;		On entry : 0/0
  4980 ;;		On exit  : 0/0
  4981 ;;		Unchanged: 0/0
  4982 ;; Data sizes:     COMRAM   BANK0   BANK1   BANK2   BANK3   BANK4   BANK5
  4983 ;;      Params:         0       0       0       0       0       0       0
  4984 ;;      Locals:         4       0       0       0       0       0       0
  4985 ;;      Temps:          0       0       0       0       0       0       0
  4986 ;;      Totals:         4       0       0       0       0       0       0
  4987 ;;Total ram usage:        4 bytes
  4988 ;; Hardware stack levels used:    1
  4989 ;; Hardware stack levels required when called:    6
  4990 ;; This function calls:
  4991 ;;		_readSceneChannel
  4992 ;; This function is called by:
  4993 ;;		_low_isr
  4994 ;; This function uses a non-reentrant model
  4995 ;;
  4996                           
  4997                           	psect	text33
  4998  00096E                     __ptext33:
  4999                           	opt stack 0
  5000  00096E                     _doDimStep:
  5001                           	opt stack 17
  5002                           
  5003                           ;scenes.c: 48: SCENECHANNEL sc;
  5004                           ;scenes.c: 50: unsigned char i;
  5005                           ;scenes.c: 52: if ( dimmingInProgress == 0)
  5006                           
  5007                           ;incstack = 0
  5008  00096E  663D               	tstfsz	_dimmingInProgress,c	;volatile
  5009  000970  D001               	goto	i1l2336
  5010  000972  0012               	return	
  5011  000974                     i1l2336:
  5012                           
  5013                           ;scenes.c: 55: dimmingInProgress = 0;
  5014  000974  0E00               	movlw	0
  5015  000976  6E3D               	movwf	_dimmingInProgress,c	;volatile
  5016                           
  5017                           ;scenes.c: 57: for ( i = 0; i < 64; i++) {
  5018  000978  0E00               	movlw	0
  5019  00097A  6E19               	movwf	doDimStep@i,c
  5020  00097C  0E3F               	movlw	63
  5021  00097E  6419               	cpfsgt	doDimStep@i,c
  5022  000980  D001               	goto	i1l2342
  5023  000982  0012               	return	
  5024  000984                     i1l2342:
  5025                           
  5026                           ;scenes.c: 59: readSceneChannel(targetScene, i, &sc);
  5027  000984  C019  F00D         	movff	doDimStep@i,readSceneChannel@channel
  5028  000988  0E00               	movlw	high doDimStep@sc
  5029  00098A  6E0F               	movwf	readSceneChannel@scp+1,c
  5030  00098C  0E16               	movlw	low doDimStep@sc
  5031  00098E  6E0E               	movwf	readSceneChannel@scp,c
  5032  000990  5041               	movf	_targetScene,w,c	;volatile
  5033  000992  EC1A  F008         	call	_readSceneChannel
  5034                           
  5035                           ;scenes.c: 61: if ( sc.isTransparent == 0 ) {
  5036  000996  6617               	tstfsz	doDimStep@sc+1,c
  5037  000998  D035               	goto	i1l2356
  5038                           
  5039                           ;scenes.c: 63: if ( sc.level != channelLevel[i] ) {
  5040  00099A  5019               	movf	doDimStep@i,w,c
  5041  00099C  0D01               	mullw	1
  5042  00099E  0100               	movlb	0	; () banked
  5043  0009A0  0E60               	movlw	low _channelLevel
  5044  0009A2  24F3               	addwf	prodl,w,c
  5045  0009A4  6ED9               	movwf	fsr2l,c
  5046  0009A6  0100               	movlb	0	; () banked
  5047  0009A8  0E00               	movlw	high _channelLevel
  5048  0009AA  20F4               	addwfc	prodh,w,c
  5049  0009AC  6EDA               	movwf	fsr2h,c
  5050  0009AE  50DF               	movf	indf2,w,c
  5051  0009B0  1816               	xorwf	doDimStep@sc,w,c
  5052  0009B2  B4D8               	btfsc	status,2,c
  5053  0009B4  D027               	goto	i1l2356
  5054                           
  5055                           ; BSR set to: 0
  5056                           ;scenes.c: 65: dimmingInProgress = 1;
  5057  0009B6  0E01               	movlw	1
  5058  0009B8  6E3D               	movwf	_dimmingInProgress,c	;volatile
  5059                           
  5060                           ; BSR set to: 0
  5061                           ;scenes.c: 67: if (channelLevel[i] > sc.level ) {
  5062  0009BA  5019               	movf	doDimStep@i,w,c
  5063  0009BC  0D01               	mullw	1
  5064  0009BE  0100               	movlb	0	; () banked
  5065  0009C0  0E60               	movlw	low _channelLevel
  5066  0009C2  24F3               	addwf	prodl,w,c
  5067  0009C4  6ED9               	movwf	fsr2l,c
  5068  0009C6  0100               	movlb	0	; () banked
  5069  0009C8  0E00               	movlw	high _channelLevel
  5070  0009CA  20F4               	addwfc	prodh,w,c
  5071  0009CC  6EDA               	movwf	fsr2h,c
  5072  0009CE  50DF               	movf	indf2,w,c
  5073  0009D0  5C16               	subwf	doDimStep@sc,w,c
  5074  0009D2  B0D8               	btfsc	status,0,c
  5075  0009D4  D00C               	goto	i1l2354
  5076                           
  5077                           ; BSR set to: 0
  5078                           ;scenes.c: 68: channelLevel[i]--;
  5079  0009D6  5019               	movf	doDimStep@i,w,c
  5080  0009D8  0D01               	mullw	1
  5081  0009DA  0100               	movlb	0	; () banked
  5082  0009DC  0E60               	movlw	low _channelLevel
  5083  0009DE  24F3               	addwf	prodl,w,c
  5084  0009E0  6ED9               	movwf	fsr2l,c
  5085  0009E2  0100               	movlb	0	; () banked
  5086  0009E4  0E00               	movlw	high _channelLevel
  5087  0009E6  20F4               	addwfc	prodh,w,c
  5088  0009E8  6EDA               	movwf	fsr2h,c
  5089  0009EA  06DF               	decf	indf2,f,c
  5090                           
  5091                           ;scenes.c: 69: }
  5092  0009EC  D00B               	goto	i1l2356
  5093  0009EE                     i1l2354:
  5094                           
  5095                           ; BSR set to: 0
  5096                           ;scenes.c: 70: else {
  5097                           ;scenes.c: 71: channelLevel[i]++;
  5098  0009EE  5019               	movf	doDimStep@i,w,c
  5099  0009F0  0D01               	mullw	1
  5100  0009F2  0100               	movlb	0	; () banked
  5101  0009F4  0E60               	movlw	low _channelLevel
  5102  0009F6  24F3               	addwf	prodl,w,c
  5103  0009F8  6ED9               	movwf	fsr2l,c
  5104  0009FA  0100               	movlb	0	; () banked
  5105  0009FC  0E00               	movlw	high _channelLevel
  5106  0009FE  20F4               	addwfc	prodh,w,c
  5107  000A00  6EDA               	movwf	fsr2h,c
  5108  000A02  2ADF               	incf	indf2,f,c
  5109  000A04                     i1l2356:
  5110  000A04  2A19               	incf	doDimStep@i,f,c
  5111  000A06  0E3F               	movlw	63
  5112  000A08  6419               	cpfsgt	doDimStep@i,c
  5113  000A0A  D7BC               	goto	i1l2342
  5114  000A0C  0012               	return	
  5115  000A0E                     __end_of_doDimStep:
  5116                           	opt stack 0
  5117                           pclatu	equ	0xFFB
  5118                           pclath	equ	0xFFA
  5119                           tblptru	equ	0xFF8
  5120                           tblptrh	equ	0xFF7
  5121                           tblptrl	equ	0xFF6
  5122                           tablat	equ	0xFF5
  5123                           prodh	equ	0xFF4
  5124                           prodl	equ	0xFF3
  5125                           intcon	equ	0xFF2
  5126                           intcon2	equ	0xFF1
  5127                           postinc0	equ	0xFEE
  5128                           fsr0h	equ	0xFEA
  5129                           fsr0l	equ	0xFE9
  5130                           wreg	equ	0xFE8
  5131                           postdec1	equ	0xFE5
  5132                           fsr1h	equ	0xFE2
  5133                           fsr1l	equ	0xFE1
  5134                           bsr	equ	0xFE0
  5135                           indf2	equ	0xFDF
  5136                           fsr2h	equ	0xFDA
  5137                           fsr2l	equ	0xFD9
  5138                           status	equ	0xFD8
  5139                           
  5140 ;; *************** function _readSceneChannel *****************
  5141 ;; Defined at:
  5142 ;;		line 97 in file "scenes.c"
  5143 ;; Parameters:    Size  Location     Type
  5144 ;;  scene           1    wreg     unsigned char 
  5145 ;;  channel         1   12[COMRAM] unsigned char 
  5146 ;;  scp             2   13[COMRAM] PTR struct _scenechannel
  5147 ;;		 -> doDimStep@sc(3), 
  5148 ;; Auto vars:     Size  Location     Type
  5149 ;;  scene           1   18[COMRAM] unsigned char 
  5150 ;;  baseAdress      2   19[COMRAM] unsigned int 
  5151 ;; Return value:  Size  Location     Type
  5152 ;;		None               void
  5153 ;; Registers used:
  5154 ;;		wreg, fsr2l, fsr2h, status,2, status,0, prodl, prodh, cstack
  5155 ;; Tracked objects:
  5156 ;;		On entry : 0/0
  5157 ;;		On exit  : 0/0
  5158 ;;		Unchanged: 0/0
  5159 ;; Data sizes:     COMRAM   BANK0   BANK1   BANK2   BANK3   BANK4   BANK5
  5160 ;;      Params:         3       0       0       0       0       0       0
  5161 ;;      Locals:         3       0       0       0       0       0       0
  5162 ;;      Temps:          3       0       0       0       0       0       0
  5163 ;;      Totals:         9       0       0       0       0       0       0
  5164 ;;Total ram usage:        9 bytes
  5165 ;; Hardware stack levels used:    1
  5166 ;; Hardware stack levels required when called:    5
  5167 ;; This function calls:
  5168 ;;		i1_HDByteReadI2C
  5169 ;;		i1_sceneAdress
  5170 ;; This function is called by:
  5171 ;;		_doDimStep
  5172 ;; This function uses a non-reentrant model
  5173 ;;
  5174                           
  5175                           	psect	text34
  5176  001034                     __ptext34:
  5177                           	opt stack 0
  5178  001034                     _readSceneChannel:
  5179                           	opt stack 17
  5180                           
  5181                           ;incstack = 0
  5182                           ;readSceneChannel@scene stored from wreg
  5183  001034  6E13               	movwf	readSceneChannel@scene,c
  5184                           
  5185                           ;scenes.c: 99: unsigned int baseAdress = sceneAdress(scene, channel);
  5186  001036  C00D  F007         	movff	readSceneChannel@channel,i1sceneAdress@channel
  5187  00103A  5013               	movf	readSceneChannel@scene,w,c
  5188  00103C  ECAF  F007         	call	i1_sceneAdress
  5189  001040  C007  F014         	movff	?i1_sceneAdress,readSceneChannel@baseAdress
  5190  001044  C008  F015         	movff	?i1_sceneAdress+1,readSceneChannel@baseAdress+1
  5191                           
  5192                           ;scenes.c: 101: HDByteReadI2C( 0xA0, (unsigned char )(baseAdress >> 8) , (unsigned char 
      +                          )(baseAdress & 0xFF) ,(unsigned char*) scp, sizeof(SCENECHANNEL) );
  5193  001048  C015  F010         	movff	readSceneChannel@baseAdress+1,??_readSceneChannel
  5194  00104C  C010  F011         	movff	??_readSceneChannel,??_readSceneChannel+1
  5195  001050  6A12               	clrf	(??_readSceneChannel+2)& (0+255),c
  5196  001052  5011               	movf	??_readSceneChannel+1,w,c
  5197  001054  6E06               	movwf	i1HDByteReadI2C@HighAdd,c
  5198  001056  C014  F007         	movff	readSceneChannel@baseAdress,i1HDByteReadI2C@LowAdd
  5199  00105A  C00F  F009         	movff	readSceneChannel@scp+1,i1HDByteReadI2C@data+1
  5200  00105E  C00E  F008         	movff	readSceneChannel@scp,i1HDByteReadI2C@data
  5201  001062  0E03               	movlw	3
  5202  001064  6E0A               	movwf	i1HDByteReadI2C@length,c
  5203  001066  0EA0               	movlw	160
  5204  001068  EC44  F003         	call	i1_HDByteReadI2C
  5205  00106C  0012               	return	
  5206  00106E                     __end_of_readSceneChannel:
  5207                           	opt stack 0
  5208                           pclatu	equ	0xFFB
  5209                           pclath	equ	0xFFA
  5210                           tblptru	equ	0xFF8
  5211                           tblptrh	equ	0xFF7
  5212                           tblptrl	equ	0xFF6
  5213                           tablat	equ	0xFF5
  5214                           prodh	equ	0xFF4
  5215                           prodl	equ	0xFF3
  5216                           intcon	equ	0xFF2
  5217                           intcon2	equ	0xFF1
  5218                           postinc0	equ	0xFEE
  5219                           fsr0h	equ	0xFEA
  5220                           fsr0l	equ	0xFE9
  5221                           wreg	equ	0xFE8
  5222                           postdec1	equ	0xFE5
  5223                           fsr1h	equ	0xFE2
  5224                           fsr1l	equ	0xFE1
  5225                           bsr	equ	0xFE0
  5226                           indf2	equ	0xFDF
  5227                           fsr2h	equ	0xFDA
  5228                           fsr2l	equ	0xFD9
  5229                           status	equ	0xFD8
  5230                           
  5231 ;; *************** function i1_sceneAdress *****************
  5232 ;; Defined at:
  5233 ;;		line 84 in file "scenes.c"
  5234 ;; Parameters:    Size  Location     Type
  5235 ;;  scene           1    wreg     unsigned char 
  5236 ;;  channel         1    6[COMRAM] unsigned char 
  5237 ;; Auto vars:     Size  Location     Type
  5238 ;;  scene           1    8[COMRAM] unsigned char 
  5239 ;;  sceneAdress     2    9[COMRAM] unsigned int 
  5240 ;; Return value:  Size  Location     Type
  5241 ;;                  2    6[COMRAM] unsigned int 
  5242 ;; Registers used:
  5243 ;;		wreg, status,2, status,0, prodl, prodh, cstack
  5244 ;; Tracked objects:
  5245 ;;		On entry : 0/0
  5246 ;;		On exit  : 0/0
  5247 ;;		Unchanged: 0/0
  5248 ;; Data sizes:     COMRAM   BANK0   BANK1   BANK2   BANK3   BANK4   BANK5
  5249 ;;      Params:         2       0       0       0       0       0       0
  5250 ;;      Locals:         3       0       0       0       0       0       0
  5251 ;;      Temps:          0       0       0       0       0       0       0
  5252 ;;      Totals:         5       0       0       0       0       0       0
  5253 ;;Total ram usage:        5 bytes
  5254 ;; Hardware stack levels used:    1
  5255 ;; Hardware stack levels required when called:    3
  5256 ;; This function calls:
  5257 ;;		i1___wmul
  5258 ;; This function is called by:
  5259 ;;		_readSceneChannel
  5260 ;; This function uses a non-reentrant model
  5261 ;;
  5262                           
  5263                           	psect	text35
  5264  000F5E                     __ptext35:
  5265                           	opt stack 0
  5266  000F5E                     i1_sceneAdress:
  5267                           	opt stack 18
  5268                           
  5269                           ;incstack = 0
  5270                           ;i1sceneAdress@scene stored from wreg
  5271  000F5E  6E09               	movwf	i1sceneAdress@scene,c
  5272                           
  5273                           ;scenes.c: 86: unsigned int baseAdress = 0x0100;
  5274  000F60  0E01               	movlw	1
  5275  000F62  6E0B               	movwf	i1sceneAdress@baseAdress+1,c
  5276  000F64  0E00               	movlw	0
  5277  000F66  6E0A               	movwf	i1sceneAdress@baseAdress,c
  5278                           
  5279                           ;scenes.c: 88: baseAdress += ((scene-1) * sizeof(SCENECHANNEL) * 64) + (channel * sizeof
      +                          (SCENECHANNEL));
  5280  000F68  0EFF               	movlw	255
  5281  000F6A  2409               	addwf	i1sceneAdress@scene,w,c
  5282  000F6C  6E01               	movwf	i1___wmul@multiplier,c
  5283  000F6E  6A02               	clrf	i1___wmul@multiplier+1,c
  5284  000F70  0EFF               	movlw	255
  5285  000F72  2202               	addwfc	i1___wmul@multiplier+1,f,c
  5286  000F74  0E00               	movlw	0
  5287  000F76  6E04               	movwf	i1___wmul@multiplicand+1,c
  5288  000F78  0E03               	movlw	3
  5289  000F7A  6E03               	movwf	i1___wmul@multiplicand,c
  5290  000F7C  EC2C  F009         	call	i1___wmul	;wreg free
  5291  000F80  0E06               	movlw	6
  5292  000F82                     i1u275_25:
  5293  000F82  90D8               	bcf	status,0,c
  5294  000F84  3601               	rlcf	?i1___wmul,f,c
  5295  000F86  3602               	rlcf	?i1___wmul+1,f,c
  5296  000F88  2EE8               	decfsz	wreg,f,c
  5297  000F8A  D7FB               	goto	i1u275_25
  5298  000F8C  5007               	movf	i1sceneAdress@channel,w,c
  5299  000F8E  0D03               	mullw	3
  5300  000F90  50F3               	movf	prodl,w,c
  5301  000F92  2601               	addwf	?i1___wmul,f,c
  5302  000F94  50F4               	movf	prodh,w,c
  5303  000F96  2202               	addwfc	?i1___wmul+1,f,c
  5304  000F98  5001               	movf	?i1___wmul,w,c
  5305  000F9A  260A               	addwf	i1sceneAdress@baseAdress,f,c
  5306  000F9C  5002               	movf	?i1___wmul+1,w,c
  5307  000F9E  220B               	addwfc	i1sceneAdress@baseAdress+1,f,c
  5308                           
  5309                           ;scenes.c: 90: return baseAdress;
  5310  000FA0  C00A  F007         	movff	i1sceneAdress@baseAdress,?i1_sceneAdress
  5311  000FA4  C00B  F008         	movff	i1sceneAdress@baseAdress+1,?i1_sceneAdress+1
  5312  000FA8  0012               	return	
  5313  000FAA                     __end_ofi1_sceneAdress:
  5314                           	opt stack 0
  5315                           pclatu	equ	0xFFB
  5316                           pclath	equ	0xFFA
  5317                           tblptru	equ	0xFF8
  5318                           tblptrh	equ	0xFF7
  5319                           tblptrl	equ	0xFF6
  5320                           tablat	equ	0xFF5
  5321                           prodh	equ	0xFF4
  5322                           prodl	equ	0xFF3
  5323                           intcon	equ	0xFF2
  5324                           intcon2	equ	0xFF1
  5325                           postinc0	equ	0xFEE
  5326                           fsr0h	equ	0xFEA
  5327                           fsr0l	equ	0xFE9
  5328                           wreg	equ	0xFE8
  5329                           postdec1	equ	0xFE5
  5330                           fsr1h	equ	0xFE2
  5331                           fsr1l	equ	0xFE1
  5332                           bsr	equ	0xFE0
  5333                           indf2	equ	0xFDF
  5334                           fsr2h	equ	0xFDA
  5335                           fsr2l	equ	0xFD9
  5336                           status	equ	0xFD8
  5337                           
  5338 ;; *************** function i1___wmul *****************
  5339 ;; Defined at:
  5340 ;;		line 15 in file "C:\Program Files (x86)\Microchip\xc8\v1.32\sources\common\Umul16.c"
  5341 ;; Parameters:    Size  Location     Type
  5342 ;;  multiplier      2    0[COMRAM] unsigned int 
  5343 ;;  multiplicand    2    2[COMRAM] unsigned int 
  5344 ;; Auto vars:     Size  Location     Type
  5345 ;;  __wmul          2    4[COMRAM] unsigned int 
  5346 ;; Return value:  Size  Location     Type
  5347 ;;                  2    0[COMRAM] unsigned int 
  5348 ;; Registers used:
  5349 ;;		wreg, status,2, status,0, prodl, prodh
  5350 ;; Tracked objects:
  5351 ;;		On entry : 0/0
  5352 ;;		On exit  : 0/0
  5353 ;;		Unchanged: 0/0
  5354 ;; Data sizes:     COMRAM   BANK0   BANK1   BANK2   BANK3   BANK4   BANK5
  5355 ;;      Params:         4       0       0       0       0       0       0
  5356 ;;      Locals:         2       0       0       0       0       0       0
  5357 ;;      Temps:          0       0       0       0       0       0       0
  5358 ;;      Totals:         6       0       0       0       0       0       0
  5359 ;;Total ram usage:        6 bytes
  5360 ;; Hardware stack levels used:    1
  5361 ;; Hardware stack levels required when called:    2
  5362 ;; This function calls:
  5363 ;;		Nothing
  5364 ;; This function is called by:
  5365 ;;		i1_sceneAdress
  5366 ;; This function uses a non-reentrant model
  5367 ;;
  5368                           
  5369                           	psect	text36
  5370  001258                     __ptext36:
  5371                           	opt stack 0
  5372  001258                     i1___wmul:
  5373                           	opt stack 18
  5374                           
  5375                           ;incstack = 0
  5376  001258  5001               	movf	i1___wmul@multiplier,w,c
  5377  00125A  0203               	mulwf	i1___wmul@multiplicand,c
  5378  00125C  CFF3 F005          	movff	prodl,i1___wmul@product
  5379  001260  CFF4 F006          	movff	prodh,i1___wmul@product+1
  5380  001264  5001               	movf	i1___wmul@multiplier,w,c
  5381  001266  0204               	mulwf	i1___wmul@multiplicand+1,c
  5382  001268  50F3               	movf	prodl,w,c
  5383  00126A  2606               	addwf	i1___wmul@product+1,f,c
  5384  00126C  5002               	movf	i1___wmul@multiplier+1,w,c
  5385  00126E  0203               	mulwf	i1___wmul@multiplicand,c
  5386  001270  50F3               	movf	prodl,w,c
  5387  001272  2606               	addwf	i1___wmul@product+1,f,c
  5388  001274  C005  F001         	movff	i1___wmul@product,?i1___wmul
  5389  001278  C006  F002         	movff	i1___wmul@product+1,?i1___wmul+1
  5390  00127C  0012               	return	
  5391  00127E                     __end_ofi1___wmul:
  5392                           	opt stack 0
  5393                           pclatu	equ	0xFFB
  5394                           pclath	equ	0xFFA
  5395                           tblptru	equ	0xFF8
  5396                           tblptrh	equ	0xFF7
  5397                           tblptrl	equ	0xFF6
  5398                           tablat	equ	0xFF5
  5399                           prodh	equ	0xFF4
  5400                           prodl	equ	0xFF3
  5401                           intcon	equ	0xFF2
  5402                           intcon2	equ	0xFF1
  5403                           postinc0	equ	0xFEE
  5404                           fsr0h	equ	0xFEA
  5405                           fsr0l	equ	0xFE9
  5406                           wreg	equ	0xFE8
  5407                           postdec1	equ	0xFE5
  5408                           fsr1h	equ	0xFE2
  5409                           fsr1l	equ	0xFE1
  5410                           bsr	equ	0xFE0
  5411                           indf2	equ	0xFDF
  5412                           fsr2h	equ	0xFDA
  5413                           fsr2l	equ	0xFD9
  5414                           status	equ	0xFD8
  5415                           
  5416 ;; *************** function i1_HDByteReadI2C *****************
  5417 ;; Defined at:
  5418 ;;		line 80 in file "massStorage.c"
  5419 ;; Parameters:    Size  Location     Type
  5420 ;;  ControlByte     1    wreg     unsigned char 
  5421 ;;  HighAdd         1    5[COMRAM] unsigned char 
  5422 ;;  LowAdd          1    6[COMRAM] unsigned char 
  5423 ;;  data            2    7[COMRAM] PTR unsigned char 
  5424 ;;		 -> readTestPattern@r(32), doDimStep@sc(3), readAButton@program(1), 
  5425 ;;  length          1    9[COMRAM] unsigned char 
  5426 ;; Auto vars:     Size  Location     Type
  5427 ;;  ControlByte     1   11[COMRAM] unsigned char 
  5428 ;; Return value:  Size  Location     Type
  5429 ;;                  1    wreg      unsigned char 
  5430 ;; Registers used:
  5431 ;;		wreg, fsr2l, fsr2h, status,2, status,0, cstack
  5432 ;; Tracked objects:
  5433 ;;		On entry : 0/0
  5434 ;;		On exit  : 0/0
  5435 ;;		Unchanged: 0/0
  5436 ;; Data sizes:     COMRAM   BANK0   BANK1   BANK2   BANK3   BANK4   BANK5
  5437 ;;      Params:         5       0       0       0       0       0       0
  5438 ;;      Locals:         1       0       0       0       0       0       0
  5439 ;;      Temps:          1       0       0       0       0       0       0
  5440 ;;      Totals:         7       0       0       0       0       0       0
  5441 ;;Total ram usage:        7 bytes
  5442 ;; Hardware stack levels used:    1
  5443 ;; Hardware stack levels required when called:    4
  5444 ;; This function calls:
  5445 ;;		i1_WriteI2C1
  5446 ;;		i1_getsI2C1
  5447 ;; This function is called by:
  5448 ;;		_readSceneChannel
  5449 ;; This function uses a non-reentrant model
  5450 ;;
  5451                           
  5452                           	psect	text37
  5453  000688                     __ptext37:
  5454                           	opt stack 0
  5455  000688                     i1_HDByteReadI2C:
  5456                           	opt stack 17
  5457                           
  5458                           ;incstack = 0
  5459                           ;i1HDByteReadI2C@ControlByte stored from wreg
  5460  000688  6E0C               	movwf	i1HDByteReadI2C@ControlByte,c
  5461  00068A                     i1l2232:
  5462  00068A  A4C7               	btfss	4039,2,c	;volatile
  5463  00068C  D003               	goto	i1u276_20
  5464  00068E  6A0B               	clrf	??i1_HDByteReadI2C& (0+255),c
  5465  000690  2A0B               	incf	??i1_HDByteReadI2C& (0+255),f,c
  5466  000692  D001               	goto	i1u276_28
  5467  000694                     i1u276_20:
  5468  000694  6A0B               	clrf	??i1_HDByteReadI2C& (0+255),c
  5469  000696                     i1u276_28:
  5470  000696  50C5               	movf	4037,w,c	;volatile
  5471  000698  0B1F               	andlw	31
  5472  00069A  100B               	iorwf	??i1_HDByteReadI2C,w,c
  5473  00069C  0900               	iorlw	0
  5474  00069E  A4D8               	btfss	status,2,c
  5475  0006A0  D7F4               	goto	i1l2232
  5476                           
  5477                           ;massStorage.c: 83: SSP1CON2bits.SEN=1;while(SSP1CON2bits.SEN);
  5478  0006A2  80C5               	bsf	4037,0,c	;volatile
  5479  0006A4                     i1l379:
  5480  0006A4  B0C5               	btfsc	4037,0,c	;volatile
  5481  0006A6  D7FE               	goto	i1l379
  5482  0006A8                     i1l382:
  5483  0006A8  B0C5               	btfsc	4037,0,c	;volatile
  5484  0006AA  D7FE               	goto	i1l382
  5485                           
  5486                           ;massStorage.c: 85: WriteI2C1( ControlByte );
  5487  0006AC  500C               	movf	i1HDByteReadI2C@ControlByte,w,c
  5488  0006AE  EC26  F006         	call	i1_WriteI2C1
  5489  0006B2                     i1l2236:
  5490  0006B2  A4C7               	btfss	4039,2,c	;volatile
  5491  0006B4  D003               	goto	i1u280_20
  5492  0006B6  6A0B               	clrf	??i1_HDByteReadI2C& (0+255),c
  5493  0006B8  2A0B               	incf	??i1_HDByteReadI2C& (0+255),f,c
  5494  0006BA  D001               	goto	i1u280_28
  5495  0006BC                     i1u280_20:
  5496  0006BC  6A0B               	clrf	??i1_HDByteReadI2C& (0+255),c
  5497  0006BE                     i1u280_28:
  5498  0006BE  50C5               	movf	4037,w,c	;volatile
  5499  0006C0  0B1F               	andlw	31
  5500  0006C2  100B               	iorwf	??i1_HDByteReadI2C,w,c
  5501  0006C4  0900               	iorlw	0
  5502  0006C6  A4D8               	btfss	status,2,c
  5503  0006C8  D7F4               	goto	i1l2236
  5504                           
  5505                           ;massStorage.c: 87: WriteI2C1( HighAdd );
  5506  0006CA  5006               	movf	i1HDByteReadI2C@HighAdd,w,c
  5507  0006CC  EC26  F006         	call	i1_WriteI2C1
  5508  0006D0                     i1l2240:
  5509  0006D0  A4C7               	btfss	4039,2,c	;volatile
  5510  0006D2  D003               	goto	i1u282_20
  5511  0006D4  6A0B               	clrf	??i1_HDByteReadI2C& (0+255),c
  5512  0006D6  2A0B               	incf	??i1_HDByteReadI2C& (0+255),f,c
  5513  0006D8  D001               	goto	i1u282_28
  5514  0006DA                     i1u282_20:
  5515  0006DA  6A0B               	clrf	??i1_HDByteReadI2C& (0+255),c
  5516  0006DC                     i1u282_28:
  5517  0006DC  50C5               	movf	4037,w,c	;volatile
  5518  0006DE  0B1F               	andlw	31
  5519  0006E0  100B               	iorwf	??i1_HDByteReadI2C,w,c
  5520  0006E2  0900               	iorlw	0
  5521  0006E4  A4D8               	btfss	status,2,c
  5522  0006E6  D7F4               	goto	i1l2240
  5523  0006E8                     i1l391:
  5524  0006E8  B2C5               	btfsc	4037,1,c	;volatile
  5525  0006EA  D7FE               	goto	i1l391
  5526                           
  5527                           ;massStorage.c: 90: WriteI2C1( LowAdd );
  5528  0006EC  5007               	movf	i1HDByteReadI2C@LowAdd,w,c
  5529  0006EE  EC26  F006         	call	i1_WriteI2C1
  5530  0006F2                     i1l2244:
  5531  0006F2  A4C7               	btfss	4039,2,c	;volatile
  5532  0006F4  D003               	goto	i1u285_20
  5533  0006F6  6A0B               	clrf	??i1_HDByteReadI2C& (0+255),c
  5534  0006F8  2A0B               	incf	??i1_HDByteReadI2C& (0+255),f,c
  5535  0006FA  D001               	goto	i1u285_28
  5536  0006FC                     i1u285_20:
  5537  0006FC  6A0B               	clrf	??i1_HDByteReadI2C& (0+255),c
  5538  0006FE                     i1u285_28:
  5539  0006FE  50C5               	movf	4037,w,c	;volatile
  5540  000700  0B1F               	andlw	31
  5541  000702  100B               	iorwf	??i1_HDByteReadI2C,w,c
  5542  000704  0900               	iorlw	0
  5543  000706  A4D8               	btfss	status,2,c
  5544  000708  D7F4               	goto	i1l2244
  5545                           
  5546                           ;massStorage.c: 92: SSP1CON2bits.RSEN=1;while(SSP1CON2bits.RSEN);
  5547  00070A  82C5               	bsf	4037,1,c	;volatile
  5548  00070C                     i1l397:
  5549  00070C  B2C5               	btfsc	4037,1,c	;volatile
  5550  00070E  D7FE               	goto	i1l397
  5551  000710                     i1l400:
  5552  000710  B2C5               	btfsc	4037,1,c	;volatile
  5553  000712  D7FE               	goto	i1l400
  5554                           
  5555                           ;massStorage.c: 94: WriteI2C1( ControlByte | 0x01 );
  5556  000714  500C               	movf	i1HDByteReadI2C@ControlByte,w,c
  5557  000716  0901               	iorlw	1
  5558  000718  EC26  F006         	call	i1_WriteI2C1
  5559  00071C                     i1l2248:
  5560  00071C  A4C7               	btfss	4039,2,c	;volatile
  5561  00071E  D003               	goto	i1u289_20
  5562  000720  6A0B               	clrf	??i1_HDByteReadI2C& (0+255),c
  5563  000722  2A0B               	incf	??i1_HDByteReadI2C& (0+255),f,c
  5564  000724  D001               	goto	i1u289_28
  5565  000726                     i1u289_20:
  5566  000726  6A0B               	clrf	??i1_HDByteReadI2C& (0+255),c
  5567  000728                     i1u289_28:
  5568  000728  50C5               	movf	4037,w,c	;volatile
  5569  00072A  0B1F               	andlw	31
  5570  00072C  100B               	iorwf	??i1_HDByteReadI2C,w,c
  5571  00072E  0900               	iorlw	0
  5572  000730  A4D8               	btfss	status,2,c
  5573  000732  D7F4               	goto	i1l2248
  5574                           
  5575                           ;massStorage.c: 96: getsI2C1( data, length );
  5576  000734  C009  F003         	movff	i1HDByteReadI2C@data+1,i1getsI2C1@rdptr+1
  5577  000738  C008  F002         	movff	i1HDByteReadI2C@data,i1getsI2C1@rdptr
  5578  00073C  C00A  F004         	movff	i1HDByteReadI2C@length,i1getsI2C1@length
  5579  000740  EC34  F007         	call	i1_getsI2C1	;wreg free
  5580                           
  5581                           ;massStorage.c: 97: SSP1CON2bits.ACKDT=1, SSP1CON2bits.ACKEN=1;while(SSP1CON2bits.ACKEN)
      +                          ;
  5582  000744  8AC5               	bsf	4037,5,c	;volatile
  5583  000746  88C5               	bsf	4037,4,c	;volatile
  5584  000748                     i1l406:
  5585  000748  B8C5               	btfsc	4037,4,c	;volatile
  5586  00074A  D7FE               	goto	i1l406
  5587  00074C                     i1l409:
  5588  00074C  B8C5               	btfsc	4037,4,c	;volatile
  5589  00074E  D7FE               	goto	i1l409
  5590                           
  5591                           ;massStorage.c: 99: SSP1CON2bits.PEN=1;while(SSP1CON2bits.PEN);
  5592  000750  84C5               	bsf	4037,2,c	;volatile
  5593  000752                     i1l412:
  5594  000752  B4C5               	btfsc	4037,2,c	;volatile
  5595  000754  D7FE               	goto	i1l412
  5596  000756                     i1l415:
  5597  000756  A4C5               	btfss	4037,2,c	;volatile
  5598                           
  5599                           ;massStorage.c: 101: return ( 0 );
  5600                           ;	Return value of i1_HDByteReadI2C is never used
  5601  000758  0012               	return	
  5602  00075A  D7FD               	goto	i1l415
  5603  00075C                     __end_ofi1_HDByteReadI2C:
  5604                           	opt stack 0
  5605                           pclatu	equ	0xFFB
  5606                           pclath	equ	0xFFA
  5607                           tblptru	equ	0xFF8
  5608                           tblptrh	equ	0xFF7
  5609                           tblptrl	equ	0xFF6
  5610                           tablat	equ	0xFF5
  5611                           prodh	equ	0xFF4
  5612                           prodl	equ	0xFF3
  5613                           intcon	equ	0xFF2
  5614                           intcon2	equ	0xFF1
  5615                           postinc0	equ	0xFEE
  5616                           fsr0h	equ	0xFEA
  5617                           fsr0l	equ	0xFE9
  5618                           wreg	equ	0xFE8
  5619                           postdec1	equ	0xFE5
  5620                           fsr1h	equ	0xFE2
  5621                           fsr1l	equ	0xFE1
  5622                           bsr	equ	0xFE0
  5623                           indf2	equ	0xFDF
  5624                           fsr2h	equ	0xFDA
  5625                           fsr2l	equ	0xFD9
  5626                           status	equ	0xFD8
  5627                           
  5628 ;; *************** function i1_getsI2C1 *****************
  5629 ;; Defined at:
  5630 ;;		line 16 in file "C:\Program Files (x86)\Microchip\xc8\v1.32\sources\pic18\plib\i2c\i2c1gets.c"
  5631 ;; Parameters:    Size  Location     Type
  5632 ;;  rdptr           2    1[COMRAM] PTR unsigned char 
  5633 ;;		 -> readTestPattern@r(32), doDimStep@sc(3), readAButton@program(1), 
  5634 ;;  length          1    3[COMRAM] unsigned char 
  5635 ;; Auto vars:     Size  Location     Type
  5636 ;;		None
  5637 ;; Return value:  Size  Location     Type
  5638 ;;                  1    wreg      char 
  5639 ;; Registers used:
  5640 ;;		wreg, fsr2l, fsr2h, status,2, status,0, cstack
  5641 ;; Tracked objects:
  5642 ;;		On entry : 0/0
  5643 ;;		On exit  : 0/0
  5644 ;;		Unchanged: 0/0
  5645 ;; Data sizes:     COMRAM   BANK0   BANK1   BANK2   BANK3   BANK4   BANK5
  5646 ;;      Params:         3       0       0       0       0       0       0
  5647 ;;      Locals:         0       0       0       0       0       0       0
  5648 ;;      Temps:          1       0       0       0       0       0       0
  5649 ;;      Totals:         4       0       0       0       0       0       0
  5650 ;;Total ram usage:        4 bytes
  5651 ;; Hardware stack levels used:    1
  5652 ;; Hardware stack levels required when called:    3
  5653 ;; This function calls:
  5654 ;;		i1_ReadI2C1
  5655 ;; This function is called by:
  5656 ;;		i1_HDByteReadI2C
  5657 ;; This function uses a non-reentrant model
  5658 ;;
  5659                           
  5660                           	psect	text38
  5661  000E68                     __ptext38:
  5662                           	opt stack 0
  5663  000E68                     i1_getsI2C1:
  5664                           	opt stack 17
  5665                           
  5666                           ;incstack = 0
  5667  000E68  D024               	goto	i1l2102
  5668  000E6A                     i1l2088:
  5669  000E6A  EC04  F009         	call	i1_ReadI2C1	;wreg free
  5670  000E6E  C002  FFD9         	movff	i1getsI2C1@rdptr,fsr2l
  5671  000E72  C003  FFDA         	movff	i1getsI2C1@rdptr+1,fsr2h
  5672  000E76  6EDF               	movwf	indf2,c
  5673  000E78  4A02               	infsnz	i1getsI2C1@rdptr,f,c
  5674  000E7A  2A03               	incf	i1getsI2C1@rdptr+1,f,c
  5675  000E7C                     i1l567:
  5676  000E7C  B6C5               	btfsc	4037,3,c	;volatile
  5677  000E7E  D7FE               	goto	i1l567
  5678  000E80  B6A1               	btfsc	4001,3,c	;volatile
  5679  000E82  0012               	return	
  5680                           
  5681                           ;	Return value of i1_getsI2C1 is never used
  5682  000E84  CFC6 F005          	movff	4038,??i1_getsI2C1	;volatile
  5683  000E88  0E0F               	movlw	15
  5684  000E8A  1605               	andwf	??i1_getsI2C1,f,c
  5685  000E8C  5005               	movf	??i1_getsI2C1,w,c
  5686  000E8E  0A08               	xorlw	8
  5687  000E90  B4D8               	btfsc	status,2,c
  5688  000E92  D008               	goto	i1l2098
  5689  000E94  CFC6 F005          	movff	4038,??i1_getsI2C1	;volatile
  5690  000E98  0E0F               	movlw	15
  5691  000E9A  1605               	andwf	??i1_getsI2C1,f,c
  5692  000E9C  5005               	movf	??i1_getsI2C1,w,c
  5693  000E9E  0A0B               	xorlw	11
  5694  000EA0  A4D8               	btfss	status,2,c
  5695  000EA2  D007               	goto	i1l2102
  5696  000EA4                     i1l2098:
  5697  000EA4  5004               	movf	i1getsI2C1@length,w,c
  5698  000EA6  B4D8               	btfsc	status,2,c
  5699  000EA8  D004               	goto	i1l2102
  5700  000EAA  9AC5               	bcf	4037,5,c	;volatile
  5701  000EAC  88C5               	bsf	4037,4,c	;volatile
  5702  000EAE                     i1l576:
  5703  000EAE  B8C5               	btfsc	4037,4,c	;volatile
  5704  000EB0  D7FE               	goto	i1l576
  5705  000EB2                     i1l2102:
  5706  000EB2  0604               	decf	i1getsI2C1@length,f,c
  5707  000EB4  2804               	incf	i1getsI2C1@length& (0+255),w,c
  5708  000EB6  B4D8               	btfsc	status,2,c
  5709                           
  5710                           ;	Return value of i1_getsI2C1 is never used
  5711  000EB8  0012               	return	
  5712  000EBA  D7D7               	goto	i1l2088
  5713  000EBC                     __end_ofi1_getsI2C1:
  5714                           	opt stack 0
  5715                           pclatu	equ	0xFFB
  5716                           pclath	equ	0xFFA
  5717                           tblptru	equ	0xFF8
  5718                           tblptrh	equ	0xFF7
  5719                           tblptrl	equ	0xFF6
  5720                           tablat	equ	0xFF5
  5721                           prodh	equ	0xFF4
  5722                           prodl	equ	0xFF3
  5723                           intcon	equ	0xFF2
  5724                           intcon2	equ	0xFF1
  5725                           postinc0	equ	0xFEE
  5726                           fsr0h	equ	0xFEA
  5727                           fsr0l	equ	0xFE9
  5728                           wreg	equ	0xFE8
  5729                           postdec1	equ	0xFE5
  5730                           fsr1h	equ	0xFE2
  5731                           fsr1l	equ	0xFE1
  5732                           bsr	equ	0xFE0
  5733                           indf2	equ	0xFDF
  5734                           fsr2h	equ	0xFDA
  5735                           fsr2l	equ	0xFD9
  5736                           status	equ	0xFD8
  5737                           
  5738 ;; *************** function i1_ReadI2C1 *****************
  5739 ;; Defined at:
  5740 ;;		line 11 in file "C:\Program Files (x86)\Microchip\xc8\v1.32\sources\pic18\plib\i2c\i2c1read.c"
  5741 ;; Parameters:    Size  Location     Type
  5742 ;;		None
  5743 ;; Auto vars:     Size  Location     Type
  5744 ;;		None
  5745 ;; Return value:  Size  Location     Type
  5746 ;;                  1    wreg      unsigned char 
  5747 ;; Registers used:
  5748 ;;		wreg, status,2, status,0
  5749 ;; Tracked objects:
  5750 ;;		On entry : 0/0
  5751 ;;		On exit  : 0/0
  5752 ;;		Unchanged: 0/0
  5753 ;; Data sizes:     COMRAM   BANK0   BANK1   BANK2   BANK3   BANK4   BANK5
  5754 ;;      Params:         0       0       0       0       0       0       0
  5755 ;;      Locals:         0       0       0       0       0       0       0
  5756 ;;      Temps:          1       0       0       0       0       0       0
  5757 ;;      Totals:         1       0       0       0       0       0       0
  5758 ;;Total ram usage:        1 bytes
  5759 ;; Hardware stack levels used:    1
  5760 ;; Hardware stack levels required when called:    2
  5761 ;; This function calls:
  5762 ;;		Nothing
  5763 ;; This function is called by:
  5764 ;;		i1_getsI2C1
  5765 ;; This function uses a non-reentrant model
  5766 ;;
  5767                           
  5768                           	psect	text39
  5769  001208                     __ptext39:
  5770                           	opt stack 0
  5771  001208                     i1_ReadI2C1:
  5772                           	opt stack 17
  5773                           
  5774                           ;incstack = 0
  5775  001208  CFC6 F001          	movff	4038,??i1_ReadI2C1	;volatile
  5776  00120C  0E0F               	movlw	15
  5777  00120E  1601               	andwf	??i1_ReadI2C1,f,c
  5778  001210  5001               	movf	??i1_ReadI2C1,w,c
  5779  001212  0A08               	xorlw	8
  5780  001214  B4D8               	btfsc	status,2,c
  5781  001216  D007               	goto	i1l601
  5782  001218  CFC6 F001          	movff	4038,??i1_ReadI2C1	;volatile
  5783  00121C  0E0F               	movlw	15
  5784  00121E  1601               	andwf	??i1_ReadI2C1,f,c
  5785  001220  5001               	movf	??i1_ReadI2C1,w,c
  5786  001222  0A0B               	xorlw	11
  5787  001224  B4D8               	btfsc	status,2,c
  5788  001226                     i1l601:
  5789  001226  86C5               	bsf	4037,3,c	;volatile
  5790  001228                     i1l602:
  5791  001228  A0C7               	btfss	4039,0,c	;volatile
  5792  00122A  D7FE               	goto	i1l602
  5793  00122C  50C9               	movf	4041,w,c	;volatile
  5794  00122E  0012               	return	
  5795  001230                     __end_ofi1_ReadI2C1:
  5796                           	opt stack 0
  5797                           pclatu	equ	0xFFB
  5798                           pclath	equ	0xFFA
  5799                           tblptru	equ	0xFF8
  5800                           tblptrh	equ	0xFF7
  5801                           tblptrl	equ	0xFF6
  5802                           tablat	equ	0xFF5
  5803                           prodh	equ	0xFF4
  5804                           prodl	equ	0xFF3
  5805                           intcon	equ	0xFF2
  5806                           intcon2	equ	0xFF1
  5807                           postinc0	equ	0xFEE
  5808                           fsr0h	equ	0xFEA
  5809                           fsr0l	equ	0xFE9
  5810                           wreg	equ	0xFE8
  5811                           postdec1	equ	0xFE5
  5812                           fsr1h	equ	0xFE2
  5813                           fsr1l	equ	0xFE1
  5814                           bsr	equ	0xFE0
  5815                           indf2	equ	0xFDF
  5816                           fsr2h	equ	0xFDA
  5817                           fsr2l	equ	0xFD9
  5818                           status	equ	0xFD8
  5819                           
  5820 ;; *************** function i1_WriteI2C1 *****************
  5821 ;; Defined at:
  5822 ;;		line 12 in file "C:\Program Files (x86)\Microchip\xc8\v1.32\sources\pic18\plib\i2c\i2c1writ.c"
  5823 ;; Parameters:    Size  Location     Type
  5824 ;;  data_out        1    wreg     unsigned char 
  5825 ;; Auto vars:     Size  Location     Type
  5826 ;;  data_out        1    1[COMRAM] unsigned char 
  5827 ;; Return value:  Size  Location     Type
  5828 ;;                  1    wreg      char 
  5829 ;; Registers used:
  5830 ;;		wreg, status,2, status,0
  5831 ;; Tracked objects:
  5832 ;;		On entry : 0/0
  5833 ;;		On exit  : 0/0
  5834 ;;		Unchanged: 0/0
  5835 ;; Data sizes:     COMRAM   BANK0   BANK1   BANK2   BANK3   BANK4   BANK5
  5836 ;;      Params:         0       0       0       0       0       0       0
  5837 ;;      Locals:         1       0       0       0       0       0       0
  5838 ;;      Temps:          1       0       0       0       0       0       0
  5839 ;;      Totals:         2       0       0       0       0       0       0
  5840 ;;Total ram usage:        2 bytes
  5841 ;; Hardware stack levels used:    1
  5842 ;; Hardware stack levels required when called:    2
  5843 ;; This function calls:
  5844 ;;		Nothing
  5845 ;; This function is called by:
  5846 ;;		i1_HDByteReadI2C
  5847 ;; This function uses a non-reentrant model
  5848 ;;
  5849                           
  5850                           	psect	text40
  5851  000C4C                     __ptext40:
  5852                           	opt stack 0
  5853  000C4C                     i1_WriteI2C1:
  5854                           	opt stack 18
  5855                           
  5856                           ;incstack = 0
  5857                           ;i1WriteI2C1@data_out stored from wreg
  5858  000C4C  6E02               	movwf	i1WriteI2C1@data_out,c
  5859  000C4E  C002  FFC9         	movff	i1WriteI2C1@data_out,4041	;volatile
  5860  000C52  BEC6               	btfsc	4038,7,c	;volatile
  5861  000C54  0012               	return	
  5862                           
  5863                           ;	Return value of i1_WriteI2C1 is never used
  5864  000C56  CFC6 F001          	movff	4038,??i1_WriteI2C1	;volatile
  5865  000C5A  0E0F               	movlw	15
  5866  000C5C  1601               	andwf	??i1_WriteI2C1,f,c
  5867  000C5E  5001               	movf	??i1_WriteI2C1,w,c
  5868  000C60  0A08               	xorlw	8
  5869  000C62  B4D8               	btfsc	status,2,c
  5870  000C64  D00F               	goto	i1l2124
  5871  000C66  CFC6 F001          	movff	4038,??i1_WriteI2C1	;volatile
  5872  000C6A  0E0F               	movlw	15
  5873  000C6C  1601               	andwf	??i1_WriteI2C1,f,c
  5874  000C6E  5001               	movf	??i1_WriteI2C1,w,c
  5875  000C70  0A0B               	xorlw	11
  5876  000C72  B4D8               	btfsc	status,2,c
  5877  000C74  D007               	goto	i1l2124
  5878  000C76  88C6               	bsf	4038,4,c	;volatile
  5879  000C78                     i1l626:
  5880  000C78  A69E               	btfss	3998,3,c	;volatile
  5881  000C7A  D7FE               	goto	i1l626
  5882  000C7C  B4C7               	btfsc	4039,2,c	;volatile
  5883  000C7E  0012               	return	
  5884  000C80  50C7               	movf	4039,w,c	;volatile
  5885  000C82  0012               	return	
  5886  000C84                     i1l2124:
  5887  000C84  CFC6 F001          	movff	4038,??i1_WriteI2C1	;volatile
  5888  000C88  0E0F               	movlw	15
  5889  000C8A  1601               	andwf	??i1_WriteI2C1,f,c
  5890  000C8C  5001               	movf	??i1_WriteI2C1,w,c
  5891  000C8E  0A08               	xorlw	8
  5892  000C90  B4D8               	btfsc	status,2,c
  5893  000C92  D008               	goto	i1l635
  5894  000C94  CFC6 F001          	movff	4038,??i1_WriteI2C1	;volatile
  5895  000C98  0E0F               	movlw	15
  5896  000C9A  1601               	andwf	??i1_WriteI2C1,f,c
  5897  000C9C  5001               	movf	??i1_WriteI2C1,w,c
  5898  000C9E  0A0B               	xorlw	11
  5899  000CA0  A4D8               	btfss	status,2,c
  5900  000CA2  0012               	return	
  5901  000CA4                     i1l635:
  5902  000CA4  B0C7               	btfsc	4039,0,c	;volatile
  5903  000CA6  D7FE               	goto	i1l635
  5904  000CA8                     i1l2128:
  5905  000CA8  A4C7               	btfss	4039,2,c	;volatile
  5906  000CAA  D003               	goto	i1u234_20
  5907  000CAC  6A01               	clrf	??i1_WriteI2C1& (0+255),c
  5908  000CAE  2A01               	incf	??i1_WriteI2C1& (0+255),f,c
  5909  000CB0  D001               	goto	i1u234_28
  5910  000CB2                     i1u234_20:
  5911  000CB2  6A01               	clrf	??i1_WriteI2C1& (0+255),c
  5912  000CB4                     i1u234_28:
  5913  000CB4  50C5               	movf	4037,w,c	;volatile
  5914  000CB6  0B1F               	andlw	31
  5915  000CB8  1001               	iorwf	??i1_WriteI2C1,w,c
  5916  000CBA  0900               	iorlw	0
  5917  000CBC  A4D8               	btfss	status,2,c
  5918  000CBE  D7F4               	goto	i1l2128
  5919  000CC0  50C5               	movf	4037,w,c	;volatile
  5920  000CC2  0012               	return	
  5921  000CC4                     __end_ofi1_WriteI2C1:
  5922                           	opt stack 0
  5923                           pclatu	equ	0xFFB
  5924                           pclath	equ	0xFFA
  5925                           tblptru	equ	0xFF8
  5926                           tblptrh	equ	0xFF7
  5927                           tblptrl	equ	0xFF6
  5928                           tablat	equ	0xFF5
  5929                           prodh	equ	0xFF4
  5930                           prodl	equ	0xFF3
  5931                           intcon	equ	0xFF2
  5932                           intcon2	equ	0xFF1
  5933                           postinc0	equ	0xFEE
  5934                           fsr0h	equ	0xFEA
  5935                           fsr0l	equ	0xFE9
  5936                           wreg	equ	0xFE8
  5937                           postdec1	equ	0xFE5
  5938                           fsr1h	equ	0xFE2
  5939                           fsr1l	equ	0xFE1
  5940                           bsr	equ	0xFE0
  5941                           indf2	equ	0xFDF
  5942                           fsr2h	equ	0xFDA
  5943                           fsr2l	equ	0xFD9
  5944                           status	equ	0xFD8
  5945                           
  5946 ;; *************** function _high_isr *****************
  5947 ;; Defined at:
  5948 ;;		line 13 in file "interrupts.c"
  5949 ;; Parameters:    Size  Location     Type
  5950 ;;		None
  5951 ;; Auto vars:     Size  Location     Type
  5952 ;;  data            1   17[BANK0 ] unsigned char 
  5953 ;; Return value:  Size  Location     Type
  5954 ;;		None               void
  5955 ;; Registers used:
  5956 ;;		wreg, fsr2l, fsr2h, status,2, status,0, cstack
  5957 ;; Tracked objects:
  5958 ;;		On entry : 0/0
  5959 ;;		On exit  : 0/0
  5960 ;;		Unchanged: 0/0
  5961 ;; Data sizes:     COMRAM   BANK0   BANK1   BANK2   BANK3   BANK4   BANK5
  5962 ;;      Params:         0       0       0       0       0       0       0
  5963 ;;      Locals:         0       1       0       0       0       0       0
  5964 ;;      Temps:          0      14       0       0       0       0       0
  5965 ;;      Totals:         0      15       0       0       0       0       0
  5966 ;;Total ram usage:       15 bytes
  5967 ;; Hardware stack levels used:    1
  5968 ;; Hardware stack levels required when called:    1
  5969 ;; This function calls:
  5970 ;;		_buttonsReset
  5971 ;;		_fifoPut
  5972 ;; This function is called by:
  5973 ;;		Interrupt level 2
  5974 ;; This function uses a non-reentrant model
  5975 ;;
  5976                           
  5977                           	psect	intcode
  5978  000008                     __pintcode:
  5979                           	opt stack 0
  5980  000008                     _high_isr:
  5981                           	opt stack 17
  5982                           
  5983                           ;incstack = 0
  5984  000008  CFFA F0A6          	movff	pclath,??_high_isr
  5985  00000C  CFFB F0A7          	movff	pclatu,??_high_isr+1
  5986  000010  CFE9 F0A8          	movff	fsr0l,??_high_isr+2
  5987  000014  EFE5  F005         	goto	int_func
  5988                           pclatu	equ	0xFFB
  5989                           pclath	equ	0xFFA
  5990                           tblptru	equ	0xFF8
  5991                           tblptrh	equ	0xFF7
  5992                           tblptrl	equ	0xFF6
  5993                           tablat	equ	0xFF5
  5994                           prodh	equ	0xFF4
  5995                           prodl	equ	0xFF3
  5996                           intcon	equ	0xFF2
  5997                           intcon2	equ	0xFF1
  5998                           postinc0	equ	0xFEE
  5999                           fsr0h	equ	0xFEA
  6000                           fsr0l	equ	0xFE9
  6001                           wreg	equ	0xFE8
  6002                           postdec1	equ	0xFE5
  6003                           fsr1h	equ	0xFE2
  6004                           fsr1l	equ	0xFE1
  6005                           bsr	equ	0xFE0
  6006                           indf2	equ	0xFDF
  6007                           fsr2h	equ	0xFDA
  6008                           fsr2l	equ	0xFD9
  6009                           status	equ	0xFD8
  6010                           
  6011                           	psect	intcode_body
  6012  000BCA                     __pintcode_body:
  6013                           	opt stack 17
  6014  000BCA                     int_func:
  6015                           	opt stack 17
  6016  000BCA  CFEA F0A9          	movff	fsr0h,??_high_isr+3
  6017  000BCE  CFE1 F0AA          	movff	fsr1l,??_high_isr+4
  6018  000BD2  CFE2 F0AB          	movff	fsr1h,??_high_isr+5
  6019  000BD6  CFD9 F0AC          	movff	fsr2l,??_high_isr+6
  6020  000BDA  CFDA F0AD          	movff	fsr2h,??_high_isr+7
  6021  000BDE  CFF3 F0AE          	movff	prodl,??_high_isr+8
  6022  000BE2  CFF4 F0AF          	movff	prodh,??_high_isr+9
  6023  000BE6  CFF6 F0B0          	movff	tblptrl,??_high_isr+10
  6024  000BEA  CFF7 F0B1          	movff	tblptrh,??_high_isr+11
  6025  000BEE  CFF8 F0B2          	movff	tblptru,??_high_isr+12
  6026  000BF2  CFF5 F0B3          	movff	tablat,??_high_isr+13
  6027                           
  6028                           ;interrupts.c: 15: unsigned char data;
  6029                           ;interrupts.c: 21: if (PIR3bits.RC2IF == 1) {
  6030  000BF6  AAA4               	btfss	4004,5,c	;volatile
  6031  000BF8  D007               	goto	i2l3036
  6032                           
  6033                           ;interrupts.c: 23: data = RCREG;
  6034  000BFA  CFAE F0B4          	movff	4014,high_isr@data	;volatile
  6035                           
  6036                           ;interrupts.c: 24: fifoPut(data);
  6037  000BFE  0100               	movlb	0	; () banked
  6038  000C00  51B4               	movf	high_isr@data& (0+255),w,b
  6039  000C02  EC18  F009         	call	_fifoPut
  6040                           
  6041                           ;interrupts.c: 25: PIR3bits.RC2IF = 0;
  6042  000C06  9AA4               	bcf	4004,5,c	;volatile
  6043  000C08                     i2l3036:
  6044                           
  6045                           ;interrupts.c: 26: }
  6046                           ;interrupts.c: 32: if ( INTCONbits.T0IF == 1) {
  6047  000C08  A4F2               	btfss	intcon,2,c	;volatile
  6048  000C0A  D003               	goto	i2l27
  6049                           
  6050                           ;interrupts.c: 34: buttonsReset();
  6051  000C0C  EC55  F005         	call	_buttonsReset	;wreg free
  6052                           
  6053                           ;interrupts.c: 35: INTCONbits.T0IF = 0;
  6054  000C10  94F2               	bcf	intcon,2,c	;volatile
  6055  000C12                     i2l27:
  6056  000C12  C0B3  FFF5         	movff	??_high_isr+13,tablat
  6057  000C16  C0B2  FFF8         	movff	??_high_isr+12,tblptru
  6058  000C1A  C0B1  FFF7         	movff	??_high_isr+11,tblptrh
  6059  000C1E  C0B0  FFF6         	movff	??_high_isr+10,tblptrl
  6060  000C22  C0AF  FFF4         	movff	??_high_isr+9,prodh
  6061  000C26  C0AE  FFF3         	movff	??_high_isr+8,prodl
  6062  000C2A  C0AD  FFDA         	movff	??_high_isr+7,fsr2h
  6063  000C2E  C0AC  FFD9         	movff	??_high_isr+6,fsr2l
  6064  000C32  C0AB  FFE2         	movff	??_high_isr+5,fsr1h
  6065  000C36  C0AA  FFE1         	movff	??_high_isr+4,fsr1l
  6066  000C3A  C0A9  FFEA         	movff	??_high_isr+3,fsr0h
  6067  000C3E  C0A8  FFE9         	movff	??_high_isr+2,fsr0l
  6068  000C42  C0A7  FFFB         	movff	??_high_isr+1,pclatu
  6069  000C46  C0A6  FFFA         	movff	??_high_isr,pclath
  6070  000C4A  0011               	retfie		f
  6071  000C4C                     __end_of_high_isr:
  6072                           	opt stack 0
  6073                           pclatu	equ	0xFFB
  6074                           pclath	equ	0xFFA
  6075                           tblptru	equ	0xFF8
  6076                           tblptrh	equ	0xFF7
  6077                           tblptrl	equ	0xFF6
  6078                           tablat	equ	0xFF5
  6079                           prodh	equ	0xFF4
  6080                           prodl	equ	0xFF3
  6081                           intcon	equ	0xFF2
  6082                           intcon2	equ	0xFF1
  6083                           postinc0	equ	0xFEE
  6084                           fsr0h	equ	0xFEA
  6085                           fsr0l	equ	0xFE9
  6086                           wreg	equ	0xFE8
  6087                           postdec1	equ	0xFE5
  6088                           fsr1h	equ	0xFE2
  6089                           fsr1l	equ	0xFE1
  6090                           bsr	equ	0xFE0
  6091                           indf2	equ	0xFDF
  6092                           fsr2h	equ	0xFDA
  6093                           fsr2l	equ	0xFD9
  6094                           status	equ	0xFD8
  6095                           
  6096 ;; *************** function _fifoPut *****************
  6097 ;; Defined at:
  6098 ;;		line 53 in file "fifo.c"
  6099 ;; Parameters:    Size  Location     Type
  6100 ;;  in              1    wreg     unsigned char 
  6101 ;; Auto vars:     Size  Location     Type
  6102 ;;  in              1    2[BANK0 ] unsigned char 
  6103 ;; Return value:  Size  Location     Type
  6104 ;;		None               void
  6105 ;; Registers used:
  6106 ;;		wreg, fsr2l, fsr2h, status,2, status,0
  6107 ;; Tracked objects:
  6108 ;;		On entry : 0/0
  6109 ;;		On exit  : 0/0
  6110 ;;		Unchanged: 0/0
  6111 ;; Data sizes:     COMRAM   BANK0   BANK1   BANK2   BANK3   BANK4   BANK5
  6112 ;;      Params:         0       0       0       0       0       0       0
  6113 ;;      Locals:         0       1       0       0       0       0       0
  6114 ;;      Temps:          0       2       0       0       0       0       0
  6115 ;;      Totals:         0       3       0       0       0       0       0
  6116 ;;Total ram usage:        3 bytes
  6117 ;; Hardware stack levels used:    1
  6118 ;; This function calls:
  6119 ;;		Nothing
  6120 ;; This function is called by:
  6121 ;;		_high_isr
  6122 ;; This function uses a non-reentrant model
  6123 ;;
  6124                           
  6125                           	psect	text42
  6126  001230                     __ptext42:
  6127                           	opt stack 0
  6128  001230                     _fifoPut:
  6129                           	opt stack 17
  6130                           
  6131                           ;incstack = 0
  6132                           ;fifoPut@in stored from wreg
  6133  001230  0100               	movlb	0	; () banked
  6134  001232  6FA5               	movwf	fifoPut@in& (0+255),b
  6135                           
  6136                           ; BSR set to: 0
  6137                           ;fifo.c: 59: fifo[fifoIn++ & 0x0F] = in;
  6138  001234  503F               	movf	_fifoIn,w,c
  6139  001236  0B0F               	andlw	15
  6140  001238  0100               	movlb	0	; () banked
  6141  00123A  6FA3               	movwf	??_fifoPut& (0+255),b
  6142  00123C  6BA4               	clrf	(??_fifoPut+1)& (0+255),b
  6143  00123E  0E2B               	movlw	low _fifo
  6144  001240  0100               	movlb	0	; () banked
  6145  001242  25A3               	addwf	??_fifoPut& (0+255),w,b
  6146  001244  6ED9               	movwf	fsr2l,c
  6147  001246  0E00               	movlw	high _fifo
  6148  001248  0100               	movlb	0	; () banked
  6149  00124A  21A4               	addwfc	(??_fifoPut+1)& (0+255),w,b
  6150  00124C  6EDA               	movwf	fsr2h,c
  6151  00124E  0100               	movlb	0	; () banked
  6152  001250  C0A5  FFDF         	movff	fifoPut@in,indf2
  6153                           
  6154                           ; BSR set to: 0
  6155  001254  2A3F               	incf	_fifoIn,f,c
  6156                           
  6157                           ; BSR set to: 0
  6158  001256  0012               	return	
  6159  001258                     __end_of_fifoPut:
  6160                           	opt stack 0
  6161                           pclatu	equ	0xFFB
  6162                           pclath	equ	0xFFA
  6163                           tblptru	equ	0xFF8
  6164                           tblptrh	equ	0xFF7
  6165                           tblptrl	equ	0xFF6
  6166                           tablat	equ	0xFF5
  6167                           prodh	equ	0xFF4
  6168                           prodl	equ	0xFF3
  6169                           intcon	equ	0xFF2
  6170                           intcon2	equ	0xFF1
  6171                           postinc0	equ	0xFEE
  6172                           fsr0h	equ	0xFEA
  6173                           fsr0l	equ	0xFE9
  6174                           wreg	equ	0xFE8
  6175                           postdec1	equ	0xFE5
  6176                           fsr1h	equ	0xFE2
  6177                           fsr1l	equ	0xFE1
  6178                           bsr	equ	0xFE0
  6179                           indf2	equ	0xFDF
  6180                           fsr2h	equ	0xFDA
  6181                           fsr2l	equ	0xFD9
  6182                           status	equ	0xFD8
  6183                           
  6184 ;; *************** function _buttonsReset *****************
  6185 ;; Defined at:
  6186 ;;		line 166 in file "buttons.c"
  6187 ;; Parameters:    Size  Location     Type
  6188 ;;		None
  6189 ;; Auto vars:     Size  Location     Type
  6190 ;;  bp              2    1[BANK0 ] PTR struct button
  6191 ;;		 -> buttons(256), 
  6192 ;;  i               1    0[BANK0 ] unsigned char 
  6193 ;; Return value:  Size  Location     Type
  6194 ;;		None               void
  6195 ;; Registers used:
  6196 ;;		wreg, fsr2l, fsr2h, status,2, status,0
  6197 ;; Tracked objects:
  6198 ;;		On entry : 0/0
  6199 ;;		On exit  : 0/0
  6200 ;;		Unchanged: 0/0
  6201 ;; Data sizes:     COMRAM   BANK0   BANK1   BANK2   BANK3   BANK4   BANK5
  6202 ;;      Params:         0       0       0       0       0       0       0
  6203 ;;      Locals:         0       3       0       0       0       0       0
  6204 ;;      Temps:          0       0       0       0       0       0       0
  6205 ;;      Totals:         0       3       0       0       0       0       0
  6206 ;;Total ram usage:        3 bytes
  6207 ;; Hardware stack levels used:    1
  6208 ;; This function calls:
  6209 ;;		Nothing
  6210 ;; This function is called by:
  6211 ;;		_high_isr
  6212 ;; This function uses a non-reentrant model
  6213 ;;
  6214                           
  6215                           	psect	text43
  6216  000AAA                     __ptext43:
  6217                           	opt stack 0
  6218  000AAA                     _buttonsReset:
  6219                           	opt stack 17
  6220                           
  6221                           ;buttons.c: 168: unsigned char i;
  6222                           ;buttons.c: 170: BUTTON *bp = buttons;
  6223                           
  6224                           ; BSR set to: 0
  6225                           ;incstack = 0
  6226  000AAA  0101               	movlb	1	; () banked
  6227  000AAC  0E01               	movlw	high _buttons
  6228  000AAE  0100               	movlb	0	; () banked
  6229  000AB0  6FA5               	movwf	(buttonsReset@bp+1)& (0+255),b
  6230  000AB2  0101               	movlb	1	; () banked
  6231  000AB4  0E00               	movlw	low _buttons
  6232  000AB6  0100               	movlb	0	; () banked
  6233  000AB8  6FA4               	movwf	buttonsReset@bp& (0+255),b
  6234                           
  6235                           ; BSR set to: 0
  6236                           ;buttons.c: 172: for ( i = 0; i < 64; i++) {
  6237  000ABA  0E00               	movlw	0
  6238  000ABC  0100               	movlb	0	; () banked
  6239  000ABE  6FA3               	movwf	buttonsReset@i& (0+255),b
  6240                           
  6241                           ; BSR set to: 0
  6242  000AC0  0E3F               	movlw	63
  6243  000AC2  0100               	movlb	0	; () banked
  6244  000AC4  65A3               	cpfsgt	buttonsReset@i& (0+255),b
  6245  000AC6  D001               	goto	i2l2824
  6246  000AC8  0012               	return	
  6247  000ACA                     i2l2824:
  6248                           
  6249                           ; BSR set to: 0
  6250                           ;buttons.c: 174: if (bp -> watchdog > 5) {
  6251  000ACA  0100               	movlb	0	; () banked
  6252  000ACC  EE20 F003          	lfsr	2,3
  6253  000AD0  0100               	movlb	0	; () banked
  6254  000AD2  51A4               	movf	buttonsReset@bp& (0+255),w,b
  6255  000AD4  26D9               	addwf	fsr2l,f,c
  6256  000AD6  0100               	movlb	0	; () banked
  6257  000AD8  51A5               	movf	(buttonsReset@bp+1)& (0+255),w,b
  6258  000ADA  22DA               	addwfc	fsr2h,f,c
  6259  000ADC  0E05               	movlw	5
  6260  000ADE  64DF               	cpfsgt	indf2,c
  6261  000AE0  D00C               	goto	i2l2828
  6262                           
  6263                           ; BSR set to: 0
  6264                           ;buttons.c: 175: bp -> isActive = 0;
  6265  000AE2  0100               	movlb	0	; () banked
  6266  000AE4  EE20 F002          	lfsr	2,2
  6267  000AE8  0100               	movlb	0	; () banked
  6268  000AEA  51A4               	movf	buttonsReset@bp& (0+255),w,b
  6269  000AEC  26D9               	addwf	fsr2l,f,c
  6270  000AEE  0100               	movlb	0	; () banked
  6271  000AF0  51A5               	movf	(buttonsReset@bp+1)& (0+255),w,b
  6272  000AF2  22DA               	addwfc	fsr2h,f,c
  6273  000AF4  0E00               	movlw	0
  6274  000AF6  6EDF               	movwf	indf2,c
  6275                           
  6276                           ;buttons.c: 176: }
  6277  000AF8  D016               	goto	i2l2832
  6278  000AFA                     i2l2828:
  6279                           
  6280                           ; BSR set to: 0
  6281                           ;buttons.c: 177: else {
  6282                           ;buttons.c: 178: if (bp -> isActive) {
  6283  000AFA  0100               	movlb	0	; () banked
  6284  000AFC  EE20 F002          	lfsr	2,2
  6285  000B00  0100               	movlb	0	; () banked
  6286  000B02  51A4               	movf	buttonsReset@bp& (0+255),w,b
  6287  000B04  26D9               	addwf	fsr2l,f,c
  6288  000B06  0100               	movlb	0	; () banked
  6289  000B08  51A5               	movf	(buttonsReset@bp+1)& (0+255),w,b
  6290  000B0A  22DA               	addwfc	fsr2h,f,c
  6291  000B0C  50DF               	movf	indf2,w,c
  6292  000B0E  B4D8               	btfsc	status,2,c
  6293  000B10  D00A               	goto	i2l2832
  6294                           
  6295                           ; BSR set to: 0
  6296                           ;buttons.c: 179: bp -> watchdog++;
  6297  000B12  0100               	movlb	0	; () banked
  6298  000B14  EE20 F003          	lfsr	2,3
  6299  000B18  0100               	movlb	0	; () banked
  6300  000B1A  51A4               	movf	buttonsReset@bp& (0+255),w,b
  6301  000B1C  26D9               	addwf	fsr2l,f,c
  6302  000B1E  0100               	movlb	0	; () banked
  6303  000B20  51A5               	movf	(buttonsReset@bp+1)& (0+255),w,b
  6304  000B22  22DA               	addwfc	fsr2h,f,c
  6305  000B24  2ADF               	incf	indf2,f,c
  6306  000B26                     i2l2832:
  6307                           
  6308                           ; BSR set to: 0
  6309                           ;buttons.c: 180: }
  6310                           ;buttons.c: 181: }
  6311                           ;buttons.c: 182: bp++;
  6312  000B26  0E04               	movlw	4
  6313  000B28  0100               	movlb	0	; () banked
  6314  000B2A  27A4               	addwf	buttonsReset@bp& (0+255),f,b
  6315  000B2C  0E00               	movlw	0
  6316  000B2E  0100               	movlb	0	; () banked
  6317  000B30  23A5               	addwfc	(buttonsReset@bp+1)& (0+255),f,b
  6318                           
  6319                           ; BSR set to: 0
  6320  000B32  0100               	movlb	0	; () banked
  6321  000B34  2BA3               	incf	buttonsReset@i& (0+255),f,b
  6322                           
  6323                           ; BSR set to: 0
  6324  000B36  0E3F               	movlw	63
  6325  000B38  0100               	movlb	0	; () banked
  6326  000B3A  65A3               	cpfsgt	buttonsReset@i& (0+255),b
  6327  000B3C  D7C6               	goto	i2l2824
  6328  000B3E  0012               	return	
  6329  000B40                     __end_of_buttonsReset:
  6330                           	opt stack 0
  6331  0000                     pclatu	equ	0xFFB
  6332                           pclath	equ	0xFFA
  6333                           tblptru	equ	0xFF8
  6334                           tblptrh	equ	0xFF7
  6335                           tblptrl	equ	0xFF6
  6336                           tablat	equ	0xFF5
  6337                           prodh	equ	0xFF4
  6338                           prodl	equ	0xFF3
  6339                           intcon	equ	0xFF2
  6340                           intcon2	equ	0xFF1
  6341                           postinc0	equ	0xFEE
  6342                           fsr0h	equ	0xFEA
  6343                           fsr0l	equ	0xFE9
  6344                           wreg	equ	0xFE8
  6345                           postdec1	equ	0xFE5
  6346                           fsr1h	equ	0xFE2
  6347                           fsr1l	equ	0xFE1
  6348                           bsr	equ	0xFE0
  6349                           indf2	equ	0xFDF
  6350                           fsr2h	equ	0xFDA
  6351                           fsr2l	equ	0xFD9
  6352                           status	equ	0xFD8
  6353                           pclatu	equ	0xFFB
  6354                           pclath	equ	0xFFA
  6355                           tblptru	equ	0xFF8
  6356                           tblptrh	equ	0xFF7
  6357                           tblptrl	equ	0xFF6
  6358                           tablat	equ	0xFF5
  6359                           prodh	equ	0xFF4
  6360                           prodl	equ	0xFF3
  6361                           intcon	equ	0xFF2
  6362                           intcon2	equ	0xFF1
  6363                           postinc0	equ	0xFEE
  6364                           fsr0h	equ	0xFEA
  6365                           fsr0l	equ	0xFE9
  6366                           wreg	equ	0xFE8
  6367                           postdec1	equ	0xFE5
  6368                           fsr1h	equ	0xFE2
  6369                           fsr1l	equ	0xFE1
  6370                           bsr	equ	0xFE0
  6371                           indf2	equ	0xFDF
  6372                           fsr2h	equ	0xFDA
  6373                           fsr2l	equ	0xFD9
  6374                           status	equ	0xFD8
  6375                           
  6376                           	psect	param0
  6377  0000                     pclatu	equ	0xFFB
  6378                           pclath	equ	0xFFA
  6379                           tblptru	equ	0xFF8
  6380                           tblptrh	equ	0xFF7
  6381                           tblptrl	equ	0xFF6
  6382                           tablat	equ	0xFF5
  6383                           prodh	equ	0xFF4
  6384                           prodl	equ	0xFF3
  6385                           intcon	equ	0xFF2
  6386                           intcon2	equ	0xFF1
  6387                           postinc0	equ	0xFEE
  6388                           fsr0h	equ	0xFEA
  6389                           fsr0l	equ	0xFE9
  6390                           wreg	equ	0xFE8
  6391                           postdec1	equ	0xFE5
  6392                           fsr1h	equ	0xFE2
  6393                           fsr1l	equ	0xFE1
  6394                           bsr	equ	0xFE0
  6395                           indf2	equ	0xFDF
  6396                           fsr2h	equ	0xFDA
  6397                           fsr2l	equ	0xFD9
  6398                           status	equ	0xFD8


Data Sizes:
    Strings     0
    Constant    0
    Data        0
    BSS         346
    Persistent  0
    Stack       0

Auto Spaces:
    Space          Size  Autos    Used
    COMRAM           95     42      65
    BANK0           160     63     130
    BANK1           256      0     256
    BANK2           256      0       0
    BANK3           256      0       0
    BANK4           256      0       0
    BANK5           256      0       0

Pointer List with Targets:

    getsI2C1@rdptr	PTR unsigned char  size(2) Largest target is 32
		 -> readTestPattern@r(BANK0[32]), doDimStep@sc(COMRAM[3]), readAButton@program(BANK0[1]), 

    HDByteReadI2C@data	PTR unsigned char  size(2) Largest target is 32
		 -> readTestPattern@r(BANK0[32]), doDimStep@sc(COMRAM[3]), readAButton@program(BANK0[1]), 

    storeASceneChannel@scp	PTR struct _scenechannel size(2) Largest target is 3
		 -> storeSomeScenes@sc(BANK0[3]), 

    readSceneChannel@scp	PTR struct _scenechannel size(2) Largest target is 3
		 -> doDimStep@sc(COMRAM[3]), 

    buttonsReset@bp	PTR struct button size(2) Largest target is 256
		 -> buttons(BANK1[256]), 

    decodeButton@bp	PTR struct button size(2) Largest target is 256
		 -> NULL(NULL[0]), buttons(BANK1[256]), 

    buttonReceived@bp	PTR struct button size(2) Largest target is 256
		 -> NULL(NULL[0]), buttons(BANK1[256]), 

    initButton@bp	PTR struct button size(2) Largest target is 256
		 -> buttons(BANK1[256]), 

    sp__findButton	PTR struct button size(2) Largest target is 256
		 -> NULL(NULL[0]), buttons(BANK1[256]), 


Critical Paths under _main in COMRAM

    None.

Critical Paths under _high_isr in COMRAM

    None.

Critical Paths under _low_isr in COMRAM

    _low_isr->_doDimStep
    _doDimStep->_readSceneChannel
    _readSceneChannel->i1_HDByteReadI2C
    i1_sceneAdress->i1___wmul
    i1_HDByteReadI2C->i1_getsI2C1
    i1_getsI2C1->i1_ReadI2C1

Critical Paths under _main in BANK0

    _main->_readTestPattern
    _storeSomeScenes->_storeASceneChannel
    _storeASceneChannel->_sceneAdress
    _sceneAdress->___wmul
    _readTestPattern->_HDByteReadI2C
    _initI2C->_OpenI2C1
    _initFlashButtonMatrix->_storeAButton
    _storeAButton->_HDByteWriteI2C
    _HDByteWriteI2C->_EEAckPolling1
    _EEAckPolling1->_WriteI2C1
    _initAllButtons->_readAButton
    _readAButton->_HDByteReadI2C
    _HDByteReadI2C->_getsI2C1
    _getsI2C1->_ReadI2C1
    _buttonByteReceived->_decodeButton
    _decodeButton->_findButton

Critical Paths under _high_isr in BANK0

    _high_isr->_buttonsReset
    _high_isr->_fifoPut

Critical Paths under _low_isr in BANK0

    None.

Critical Paths under _main in BANK1

    None.

Critical Paths under _high_isr in BANK1

    None.

Critical Paths under _low_isr in BANK1

    None.

Critical Paths under _main in BANK2

    None.

Critical Paths under _high_isr in BANK2

    None.

Critical Paths under _low_isr in BANK2

    None.

Critical Paths under _main in BANK3

    None.

Critical Paths under _high_isr in BANK3

    None.

Critical Paths under _low_isr in BANK3

    None.

Critical Paths under _main in BANK4

    None.

Critical Paths under _high_isr in BANK4

    None.

Critical Paths under _low_isr in BANK4

    None.

Critical Paths under _main in BANK5

    None.

Critical Paths under _high_isr in BANK5

    None.

Critical Paths under _low_isr in BANK5

    None.

Call Graph Tables:

 ---------------------------------------------------------------------------------
 (Depth) Function   	        Calls       Base Space   Used Autos Params    Refs
 ---------------------------------------------------------------------------------
 (0) _main                                                 0     0      0   13053
                 _buttonByteReceived
                         _doDimStart
                          _fifoEmpty
                            _fifoGet
                     _initAllButtons
                 _initButtonHardware
                 _initButtonProtocol
                        _initDMXSend
              _initFlashButtonMatrix
                       _initHardware
                            _initI2C
            _initSceneChangeHardware
                    _readTestPattern
                    _storeSomeScenes
 ---------------------------------------------------------------------------------
 (1) _storeSomeScenes                                      4     4      0    4867
                                             38 BANK0      3     3      0
                 _storeASceneChannel
 ---------------------------------------------------------------------------------
 (2) _storeASceneChannel                                   9     6      3    4240
                                             29 BANK0      9     6      3
                     _HDByteWriteI2C
                        _sceneAdress
 ---------------------------------------------------------------------------------
 (3) _sceneAdress                                          5     3      2     562
                                             24 BANK0      5     3      2
                             ___wmul
 ---------------------------------------------------------------------------------
 (4) ___wmul                                               6     2      4     368
                                             18 BANK0      6     2      4
 ---------------------------------------------------------------------------------
 (1) _readTestPattern                                     33    33      0    1609
                                             30 BANK0     33    33      0
                      _HDByteReadI2C
 ---------------------------------------------------------------------------------
 (1) _initSceneChangeHardware                              0     0      0       0
 ---------------------------------------------------------------------------------
 (1) _initI2C                                              0     0      0      97
                           _OpenI2C1
 ---------------------------------------------------------------------------------
 (2) _OpenI2C1                                             2     1      1      97
                                             18 BANK0      2     1      1
 ---------------------------------------------------------------------------------
 (1) _initHardware                                         0     0      0       0
 ---------------------------------------------------------------------------------
 (1) _initFlashButtonMatrix                                1     1      0    3690
                                             29 BANK0      1     1      0
                       _storeAButton
 ---------------------------------------------------------------------------------
 (2) _storeAButton                                         2     1      1    3591
                                             27 BANK0      2     1      1
                     _HDByteWriteI2C
 ---------------------------------------------------------------------------------
 (3) _HDByteWriteI2C                                       5     2      3    1254
                                             22 BANK0      5     2      3
                      _EEAckPolling1
                          _WriteI2C1
 ---------------------------------------------------------------------------------
 (4) _EEAckPolling1                                        2     2      0      93
                                             20 BANK0      2     2      0
                          _WriteI2C1
 ---------------------------------------------------------------------------------
 (1) _initDMXSend                                          0     0      0       0
 ---------------------------------------------------------------------------------
 (1) _initButtonProtocol                                   0     0      0       0
 ---------------------------------------------------------------------------------
 (1) _initButtonHardware                                   0     0      0       0
 ---------------------------------------------------------------------------------
 (1) _initAllButtons                                       4     4      0    2160
                                             32 BANK0      3     3      0
                         _initButton
                        _readAButton
 ---------------------------------------------------------------------------------
 (2) _readAButton                                          2     2      0    1578
                                             30 BANK0      2     2      0
                      _HDByteReadI2C
 ---------------------------------------------------------------------------------
 (2) _HDByteReadI2C                                        7     2      5    1473
                                             23 BANK0      7     2      5
                          _WriteI2C1
                           _getsI2C1
 ---------------------------------------------------------------------------------
 (3) _getsI2C1                                             4     1      3     356
                                             19 BANK0      4     1      3
                           _ReadI2C1
 ---------------------------------------------------------------------------------
 (4) _ReadI2C1                                             1     1      0       0
                                             18 BANK0      1     1      0
 ---------------------------------------------------------------------------------
 (4) _WriteI2C1                                            2     2      0      31
                                             18 BANK0      2     2      0
 ---------------------------------------------------------------------------------
 (2) _initButton                                           5     3      2     350
                                             18 BANK0      5     3      2
 ---------------------------------------------------------------------------------
 (1) _fifoGet                                              3     3      0       1
                                             18 BANK0      3     3      0
 ---------------------------------------------------------------------------------
 (1) _fifoEmpty                                            1     1      0       0
                                             18 BANK0      1     1      0
 ---------------------------------------------------------------------------------
 (1) _doDimStart                                           1     1      0      22
                                             18 BANK0      1     1      0
 ---------------------------------------------------------------------------------
 (1) _buttonByteReceived                                   4     4      0     607
                                             25 BANK0      4     4      0
                       _decodeButton
 ---------------------------------------------------------------------------------
 (2) _decodeButton                                         3     3      0     384
                                             22 BANK0      3     3      0
                     _buttonReceived
                         _findButton
 ---------------------------------------------------------------------------------
 (3) _findButton                                           4     2      2     161
                                             18 BANK0      4     2      2
 ---------------------------------------------------------------------------------
 (3) _buttonReceived                                       2     0      2     158
                                             18 BANK0      2     0      2
 ---------------------------------------------------------------------------------
 Estimated maximum stack depth 4
 ---------------------------------------------------------------------------------
 (Depth) Function   	        Calls       Base Space   Used Autos Params    Refs
 ---------------------------------------------------------------------------------
 (6) _low_isr                                             17    17      0    1170
                                             25 COMRAM    17    17      0
                          _doDimStep
                            _sendDMX
 ---------------------------------------------------------------------------------
 (7) _sendDMX                                              3     3      0      24
                                              0 COMRAM     3     3      0
 ---------------------------------------------------------------------------------
 (7) _doDimStep                                            4     4      0    1146
                                             21 COMRAM     4     4      0
                   _readSceneChannel
 ---------------------------------------------------------------------------------
 (8) _readSceneChannel                                     9     6      3     897
                                             12 COMRAM     9     6      3
                    i1_HDByteReadI2C
                      i1_sceneAdress
 ---------------------------------------------------------------------------------
 (9) i1_sceneAdress                                        5     3      2     303
                                              6 COMRAM     5     3      2
                           i1___wmul
 ---------------------------------------------------------------------------------
 (10) i1___wmul                                            6     2      4     209
                                              0 COMRAM     6     2      4
 ---------------------------------------------------------------------------------
 (9) i1_HDByteReadI2C                                      7     2      5     377
                                              5 COMRAM     7     2      5
                        i1_WriteI2C1
                         i1_getsI2C1
 ---------------------------------------------------------------------------------
 (10) i1_getsI2C1                                          4     1      3     119
                                              1 COMRAM     4     1      3
                         i1_ReadI2C1
 ---------------------------------------------------------------------------------
 (11) i1_ReadI2C1                                          1     1      0       0
                                              0 COMRAM     1     1      0
 ---------------------------------------------------------------------------------
 (10) i1_WriteI2C1                                         2     2      0      22
                                              0 COMRAM     2     2      0
 ---------------------------------------------------------------------------------
 Estimated maximum stack depth 11
 ---------------------------------------------------------------------------------
 (Depth) Function   	        Calls       Base Space   Used Autos Params    Refs
 ---------------------------------------------------------------------------------
 (12) _high_isr                                           15    15      0     192
                                              3 BANK0     15    15      0
                       _buttonsReset
                            _fifoPut
 ---------------------------------------------------------------------------------
 (13) _fifoPut                                             3     3      0      22
                                              0 BANK0      3     3      0
 ---------------------------------------------------------------------------------
 (13) _buttonsReset                                        3     3      0     136
                                              0 BANK0      3     3      0
 ---------------------------------------------------------------------------------
 Estimated maximum stack depth 13
 ---------------------------------------------------------------------------------

 Call Graph Graphs:

 _main (ROOT)
   _buttonByteReceived
     _decodeButton
       _buttonReceived
       _findButton
   _doDimStart
   _fifoEmpty
   _fifoGet
   _initAllButtons
     _initButton
     _readAButton
       _HDByteReadI2C
         _WriteI2C1
         _getsI2C1
           _ReadI2C1
   _initButtonHardware
   _initButtonProtocol
   _initDMXSend
   _initFlashButtonMatrix
     _storeAButton
       _HDByteWriteI2C
         _EEAckPolling1
           _WriteI2C1
         _WriteI2C1
   _initHardware
   _initI2C
     _OpenI2C1
   _initSceneChangeHardware
   _readTestPattern
     _HDByteReadI2C
       _WriteI2C1
       _getsI2C1
         _ReadI2C1
   _storeSomeScenes
     _storeASceneChannel
       _HDByteWriteI2C
         _EEAckPolling1
           _WriteI2C1
         _WriteI2C1
       _sceneAdress
         ___wmul

 _low_isr (ROOT)
   _doDimStep
     _readSceneChannel
       i1_HDByteReadI2C
         i1_WriteI2C1
         i1_getsI2C1
           i1_ReadI2C1
       i1_sceneAdress
         i1___wmul
   _sendDMX

 _high_isr (ROOT)
   _buttonsReset
   _fifoPut

 Address spaces:
Name               Size   Autos  Total    Cost      Usage
BIGRAM             5FF      0       0      17        0.0%
EEDATA             100      0       0       0        0.0%
BITBANK5           100      0       0      15        0.0%
BANK5              100      0       0      16        0.0%
BITBANK4           100      0       0      13        0.0%
BANK4              100      0       0      14        0.0%
BITBANK3           100      0       0      11        0.0%
BANK3              100      0       0      12        0.0%
BITBANK2           100      0       0       9        0.0%
BANK2              100      0       0      10        0.0%
BITBANK1           100      0       0       7        0.0%
BANK1              100      0     100       8      100.0%
BITBANK0            A0      0       0       5        0.0%
BANK0               A0     3F      82       6       81.3%
BITCOMRAM           5F      0       0       0        0.0%
COMRAM              5F     2A      41       1       68.4%
BITSFR_1             0      0       0      40        0.0%
SFR_1                0      0       0      40        0.0%
BITSFR               0      0       0      40        0.0%
SFR                  0      0       0      40        0.0%
STACK                0      0       0       2        0.0%
NULL                 0      0       0       0        0.0%
ABS                  0      0     1C3       3        0.0%
DATA                 0      0     1C3       4        0.0%
CODE                 0      0       0       0        0.0%


Microchip Technology PIC18 Macro Assembler V1.32 build 58300 
Symbol Table                                                                                   Sun Oct 12 10:06:57 2014

           storeASceneChannel@scp 00C1                   _storeSomeScenes 00C2  
     initAllButtons@buttonProgram 00C4                  buttonReceived@bp 00B5  
                              bsr 000FE0               ___wmul@multiplicand 00B7  
            __end_of_decodeButton 1208                       i1_WriteI2C1 0C4C  
                i1___wmul@product 0005                      __CFG_CP0$OFF 000000  
                    __CFG_CP1$OFF 000000                               l400 0552  
                             l412 05A0                               l406 0596  
                             l415 05A4                               l601 11D4  
                             l409 059A                               l521 0A32  
                             l602 11D6                               l346 05CE  
                             l531 0A58                               l524 0A36  
                             l364 0670                               l349 05D2  
                             l382 04D2                               l534 0A90  
                             l391 0522                               l551 0A9A  
                             l535 0A60                               l367 0674  
                             l544 0A88                               l536 0A62  
                             l626 0906                               l635 0940  
                             l379 04CE                               l539 0A66  
                             l548 0A96                               l397 054E  
                             l567 0DBA                               l576 0DF6  
                    __CFG_CPB$OFF 000000                      __CFG_CPD$OFF 000000  
         storeASceneChannel@scene 00C6                        i1_getsI2C1 0E68  
                             prod 000FF3                               wreg 000FE8  
             HDByteReadI2C@LowAdd 00BB                      __CFG_LVP$OFF 000000  
           __size_of_storeAButton 001A                      ?_initDMXSend 0001  
                            l3010 0B5C                              l3026 0BC2  
                            l3018 0B82                              l2610 0944  
                            l2602 0914                              l3068 0F4A  
                            l2606 0918                              l2704 0E4E  
                            l2640 0A42                              l2632 0A12  
                            l2720 05AE                              l2618 096A  
                            l2652 0A72                              l2732 062A  
                            l2724 05DE                              l2670 0DA6  
                            l2750 0504                              l2742 04AE  
                            l2680 0DEA                              l2664 0AA6  
                            l2736 0650                              l2728 0604  
                            l2754 052E                              l2746 04DE  
                            l2738 0678                              l2588 08DC  
                            l2684 0DFA                              l2758 0560  
                            l2698 0E14                              l2866 0310  
                            l2964 102E                              _LATA 000F89  
                            _LATB 000F8A                              _LATC 000F8B  
                            u4000 0636                              u4020 065C  
                            u4110 04EA                              u4200 056C  
                            u4008 063A                  sceneAdress@scene 00BD  
                            u4130 0510                              u4028 0660  
                            u4118 04EE                              u4070 04BA  
                            u4208 0570                              u4160 053A  
                            u4138 0514                              u4078 04BE  
                            u4360 12DC                              u4168 053E  
                            u4265 0D6A                              u3650 0A1E  
                            u3590 0950                              i1l32 0078  
                            u3920 05BA                              u3658 0A22  
                            u3598 0954                              u3960 05EA  
                            u3928 05BE                              i2l27 0C12  
                            u3980 0610                              u3968 05EE  
                            u3988 0614               HDByteReadI2C@length 00BE  
            HDByteReadI2C@HighAdd 00BA                              _fifo 002B  
                            _main 0F0E                      ?_readAButton 0001  
                            fsr0h 000FEA                              fsr1h 000FE2  
                            fsr0l 000FE9                              fsr2h 000FDA  
                            fsr1l 000FE1                              indf2 000FDF  
                            fsr2l 000FD9                              pclat 000FFA  
                            prodh 000FF4                              prodl 000FF3  
                            start 00BE                     __CFG_IESO$OFF 000000  
                    high_isr@data 00B4  __size_of_initSceneChangeHardware 0010  
                   _protocolState 00A2                     _HDByteReadI2C 04AA  
                           ?_main 0001                             _T1CON 000FCD  
                           _T3CON 000FB1                      _storeAButton 12E0  
                           i1l150 0848                             i1l400 0710  
                           i1l412 0752                             i1l157 08A4  
                           i1l406 0748                             i1l415 0756  
                           i1l601 1226                             i1l409 074C  
                           i1l602 1228                             i1l382 06A8  
                           i1l391 06E8                             i1l626 0C78  
                           i1l635 0CA4                             i1l379 06A4  
                           i1l397 070C                             i1l567 0E7C  
                           i1l576 0EAE                             _RCREG 000FAE  
                           _TMR0H 000FD7                             _TMR0L 000FD6  
                           _TMR3H 000FB3                             _TMR1L 000FCE  
                           _TMR3L 000FB2                             _PORTA 000F80  
                           _PORTB 000F81                             _PORTC 000F82  
                           _TRISA 000F92                             _TRISB 000F93  
                           _TRISC 000F94                             _TRISD 000F95  
                           _TXREG 000FAD                     __CFG_WRT0$OFF 000000  
                   __CFG_WRT1$OFF 000000                   __end_of_fifoGet 117E  
                  __CFG_EBTR0$OFF 000000                    __CFG_FCMEN$OFF 000000  
                 __end_of_fifoPut 1258                    __CFG_EBTR1$OFF 000000  
                   __CFG_WRTB$OFF 000000                     __CFG_WRTC$OFF 000000  
                   __CFG_WRTD$OFF 000000                   __end_of_initI2C 130C  
                     ?i1_ReadI2C1 0001                    __CFG_EBTRB$OFF 000000  
                 __end_of_sendDMX 08CC                storeAButton@button 00BF  
                 __end_of_low_isr 00BE                             tablat 000FF5  
                __end_ofi1___wmul 127E                 readAButton@button 00C1  
                           status 000FD8               i1___wmul@multiplier 0001  
                    ?_sceneAdress 00BB           __end_of_storeSomeScenes 02EE  
             i1HDByteReadI2C@data 0008                     ?_initHardware 0001  
                _readSceneChannel 1034                   __initialization 10A6  
                    __end_of_main 0F5E                  __end_of_ReadI2C1 11DE  
                  ?_HDByteReadI2C 00BA                  decodeButton@code 00B9  
         __size_of_initAllButtons 0042                  __end_of_OpenI2C1 12C2  
                          ??_main 00E2           i1sceneAdress@baseAdress 000A  
                   __activetblptr 000002                       ?i1_getsI2C1 0002  
              sceneAdress@channel 00BB                   _readTestPattern 0EBC  
                          _ANSELB 000F39                _initButtonHardware 1112  
       HDByteWriteI2C@ControlByte 00BD                       initButton@i 00B7  
                          i1l2102 0EB2                            i1l2124 0C84  
                          i1l2300 0832                            i1l2128 0CA8  
                          i1l2240 06D0                            i1l2232 068A  
                          i1l2320 088E                            i1l2312 0866  
                          i1l2314 0884                            i1l2330 08B0  
                          i1l2244 06F2                            i1l2236 06B2  
                          i1l2342 0984                            i1l2088 0E6A  
                          i1l2248 071C                            i1l2336 0974  
                          i1l2098 0EA4                            i1l2354 09EE  
                          i1l2356 0A04                            i1l2292 0824  
                          i1l2488 0066                            i2l3036 0C08  
                  __CFG_WDTEN$OFF 000000                            i2l2832 0B26  
                          i2l2824 0ACA                            i2l2828 0AFA  
                          _RCSTA2 000F71                            _OSCCON 000FD3  
                          _SPBRG1 000FAF                            _SPBRG2 000F75  
                          _SPBRGH 000FB0                            _SSPADD 000FC8  
     __size_of_storeASceneChannel 00C6                    _HDByteWriteI2C 05AA  
             ?_initButtonHardware 0001             __end_of_EEAckPolling1 0AAA  
                  ??_initHardware 00B5                  __end_of_getsI2C1 0E08  
                   ?_buttonsReset 0001                    __CFG_XINST$OFF 000000  
           __size_of_decodeButton 002A                  __end_of_high_isr 0C4C  
       initAllButtons@buttonIndex 00C3                            ___wmul 10DC  
                  __CFG_STVREN$ON 000000               __size_ofi1_ReadI2C1 0028  
                          _fifoIn 003F                            _device 00A1  
              _initButtonProtocol 132A                            _button 00A0  
  __size_of_initFlashButtonMatrix 01BC                            clear_0 10AE  
                          clear_1 10C0                            clear_2 10CC  
   __end_of_initFlashButtonMatrix 04AA                         ??_fifoGet 00B5  
                       ??_fifoPut 00A3                         ??_initI2C 00B7  
            ??_initButtonHardware 00B5                   i1_HDByteReadI2C 0688  
              i1sceneAdress@scene 0009                         ??_sendDMX 0001  
             ?_initButtonProtocol 0001               storeAButton@program 00BE  
             i1WriteI2C1@data_out 0002                         ??_low_isr 001A  
                          tblptrh 000FF7                            tblptrl 000FF6  
                          tblptru 000FF8                readAButton@program 00C2  
      buttonByteReceived@checksum 00BD            __end_of_HDByteWriteI2C 0688  
              __size_of_WriteI2C1 00A2                      _decodeButton 11DE  
            __size_of_initDMXSend 0024                        __accesstop 0060  
         __end_of__initialization 10D2                    ??_buttonsReset 00A3  
                ?_storeSomeScenes 0001              ??_initButtonProtocol 00B5  
              __size_of_doDimStep 00A0              __size_of_readAButton 0030  
                 ??_HDByteReadI2C 00BF               __size_ofi1_getsI2C1 0054  
         _initSceneChangeHardware 130C                    __pcstackCOMRAM 0001  
                    _channelLevel 0060                      ?i1_WriteI2C1 0001  
                       ?i1___wmul 0001                        _doDimStart 131C  
         __end_of_readTestPattern 0F0E                __size_of_fifoEmpty 001E  
      __end_of_buttonByteReceived 0BCA            __size_ofi1_sceneAdress 004C  
           sceneAdress@baseAdress 00BE                         ?_ReadI2C1 0001  
                      __pbssBANK0 0060                        __pbssBANK1 0100  
                 ?_HDByteWriteI2C 00B9                         ?_OpenI2C1 00B5  
            __size_of_sceneAdress 006E                      OpenI2C1@slew 00B5  
                         ?___wmul 00B5           __end_ofi1_HDByteReadI2C 075C  
                  _initAllButtons 0FF2              EEAckPolling1@control 00B8  
                         _CM1CON0 000F79                           _CM2CON0 000F78  
                      _findButton 0E08                 __end_of_WriteI2C1 096E  
                      ??i1___wmul 0005                        doDimStep@i 0019  
                    initButton@bf 00B6                      initButton@bn 00B5  
                    initButton@bp 00B8                 __end_of_doDimStep 0A0E  
            __end_of_initHardware 0FF2          __end_of_readSceneChannel 106E  
                    ??i1_ReadI2C1 0001                         ?_getsI2C1 00B6  
                         _SSP1BUF 000FC9                         ?_high_isr 0001  
                      ??_ReadI2C1 00B5                 storeSomeScenes@sc 00C9  
                      ??_OpenI2C1 00B6         ??_initSceneChangeHardware 00B5  
               __end_of_fifoEmpty 12E0                     i1_sceneAdress 0F5E  
                         __Hparam 0000                           __Lparam 0000  
               _dimmingInProgress 003D            __end_of_initAllButtons 1034  
                      _initButton 0CC4                   __size_of___wmul 0036  
         __size_of_buttonReceived 0038                __end_ofi1_ReadI2C1 1230  
             readSceneChannel@scp 000E                           __pcinit 10A6  
                         __ramtop 0600                           _fifoGet 1148  
                         _fifoOut 0040                           _fifoPut 1230  
                         __ptext0 0F0E                           __ptext1 00C2  
                         __ptext2 075C                           __ptext3 0D36  
                         __ptext4 10DC                           __ptext5 0EBC  
                         __ptext6 130C                           __ptext7 12FA  
                         __ptext8 12A2                           __ptext9 0FAA  
                     ?_doDimStart 0001                         _T0CONbits 000FD5  
                         _initI2C 12FA                  ?_readTestPattern 0001  
                       _T1CONbits 000FCD                      ??i1_getsI2C1 0005  
                         _buttons 0100                         _T3CONbits 000FB1  
                         _sendDMX 0822              __end_of_buttonsReset 0B40  
                         _low_isr 0018                        ??_getsI2C1 00B9  
                      ??_high_isr 00A6                    __pintcode_body 0BCA  
            end_of_initialization 10D2                     __Lmediumconst 0000  
                         int_func 0BCA                   initAllButtons@i 00C5  
                  ?i1_sceneAdress 0007                      _dmxSendState 003E  
              __end_ofi1_getsI2C1 0EBC                   ?_initAllButtons 0001  
                         postdec1 000FE5                           postinc0 000FEE  
                ?i1_HDByteReadI2C 0006             i1___wmul@multiplicand 0003  
                     ?_findButton 00B5   __end_of_initSceneChangeHardware 131C  
            __size_ofi1_WriteI2C1 0078             i1HDByteReadI2C@LowAdd 0007  
                       _TRISBbits 000F93                         _TRISCbits 000F94  
                       _TRISDbits 000F95            initFlashButtonMatrix@i 00C0  
           i1HDByteReadI2C@length 000A        __end_of_storeASceneChannel 0822  
             __size_of_doDimStart 000E                       ?_initButton 00B5  
                  decodeButton@bp 00BA                    __end_of___wmul 1112  
                     _BAUDCONbits 000FB8                    getsI2C1@length 00B8  
           __size_of_initHardware 0048             _initFlashButtonMatrix 02EE  
     __size_of_initButtonHardware 0036               start_initialization 10A6  
               __size_ofi1___wmul 0026            __size_of_EEAckPolling1 009C  
                ??_HDByteWriteI2C 00BC                     ??_initDMXSend 00B5  
                 ??i1_sceneAdress 0009                _buttonByteReceived 0B40  
                   ??_readAButton 00C1                 __size_of_ReadI2C1 0030  
             __size_of_findButton 0060       __size_of_initButtonProtocol 0008  
               __size_of_OpenI2C1 0020                      _initHardware 0FAA  
             ?_buttonByteReceived 0001             __end_of_HDByteReadI2C 05AA  
                        ??___wmul 00B9                    _buttonReceived 106E  
        __size_of_storeSomeScenes 022C           readSceneChannel@channel 000D  
                     _dataCounter 003B             __size_of_buttonsReset 0096  
             buttonByteReceived@b 00BF                     ?_storeAButton 00BE  
                     __pbssCOMRAM 002B                         _WriteI2C1 08CC  
                   __pcstackBANK0 00A3              ??_buttonByteReceived 00BC  
               ?_readSceneChannel 000D               __size_of_initButton 0072  
                       _doDimStep 096E                ??_readSceneChannel 0010  
               __size_of_getsI2C1 0064                 __size_of_high_isr 0C44  
                   ??_sceneAdress 00BD             HDByteWriteI2C@HighAdd 00B9  
             __end_of_initDMXSend 12A2             readSceneChannel@scene 0013  
      readSceneChannel@baseAdress 0014                     _EEAckPolling1 0A0E  
                    _buttonsReset 0AAA            __end_of_buttonReceived 10A6  
             __end_of_readAButton 11AE                         __pintcode 0008  
                       _fifoEmpty 12C2         storeASceneChannel@channel 00C0  
                     __pintcodelo 0018                    ??_storeAButton 00BF  
                        ?_fifoGet 0001            ?_initFlashButtonMatrix 0001  
                        ?_fifoPut 0001                      ??_doDimStart 00B5  
                        ?_initI2C 0001                          ?_sendDMX 0001  
                      ?_WriteI2C1 0001                          ?_low_isr 0001  
                      ?_doDimStep 0001                HDByteWriteI2C@data 00BB  
                     doDimStep@sc 0016                    ___wmul@product 00B9  
                        _LATCbits 000F8B                  ??_initAllButtons 00C3  
                        _IPR1bits 000F9F                          _IPR2bits 000FA2  
                        _PIE1bits 000F9D                          _IPR3bits 000FA5  
                        _PIE2bits 000FA0                          _PIE3bits 000FA3  
                  ?_EEAckPolling1 0001                          i1u234_20 0CB2  
              __end_of_doDimStart 132A                          i1u234_28 0CB4  
                        i1u280_20 06BC                          i1u280_28 06BE  
                        i1u282_20 06DA                          i1u282_28 06DC  
                        i1u275_25 0F82                          i1u276_20 0694  
                        i1u285_20 06FC                          i1u276_28 0696  
                        i1u285_28 06FE                          i1u289_20 0726  
                        i1u289_28 0728                          _PIR1bits 000F9E  
                        _PIR2bits 000FA1                          _PIR3bits 000FA4  
                 ?_buttonReceived 00B5                          _RCONbits 000FD0  
                __CFG_WDTPS$32768 000000                        ?_fifoEmpty 0001  
                        _SSP1CON1 000FC6                          _SSP1CON2 000FC5  
             __end_of_sceneAdress 0DA4                         fifoPut@in 00A5  
                  findButton@code 00B7                          _SSP1STAT 000FC7  
                    ??_findButton 00B7                 ___wmul@multiplier 00B5  
                        i1___wmul 1258                 HDByteReadI2C@data 00BC  
             readTestPattern@bank 00E1                 ??_storeSomeScenes 00C9  
                     _INTCON2bits 000FF1                       _initDMXSend 127E  
                   getsI2C1@rdptr 00B6          __size_of_readTestPattern 0052  
                        _ReadI2C1 11AE          ?_initSceneChangeHardware 0001  
                   ?_decodeButton 0001                       _readAButton 117E  
                        _OpenI2C1 12A2                __end_of_findButton 0E68  
                        __Hparam0 0000                          __Lparam0 0000  
                    ??_initButton 00B7                __CFG_BOREN$SBORDIS 000000  
              _storeASceneChannel 075C                     ??i1_WriteI2C1 0001  
             ?_storeASceneChannel 00C0                  __size_of_fifoGet 0036  
                __size_of_fifoPut 0028                  __size_of_initI2C 0012  
                     ??_WriteI2C1 00B5          __size_ofi1_HDByteReadI2C 00D4  
            HDByteWriteI2C@LowAdd 00BA                  __size_of_sendDMX 00AA  
                        _getsI2C1 0DA4                  __size_of_low_isr 00A6  
                        __ptext10 02EE                          __ptext11 12E0  
                        __ptext20 0DA4                          __ptext12 05AA  
                        __ptext21 11AE                          __ptext13 0A0E  
                        __ptext30 106E                          __ptext22 08CC  
                        __ptext14 127E                          __ptext23 0CC4  
                        __ptext15 132A                          __ptext40 0C4C  
                        __ptext32 0822                          __ptext24 1148  
                        __ptext16 1112                          __ptext33 096E  
                        __ptext25 12C2                          __ptext17 0FF2  
                        __ptext42 1230                          __ptext34 1034  
                        __ptext26 131C                          __ptext18 117E  
                        __ptext43 0AAA                          __ptext35 0F5E  
                        __ptext27 0B40                          __ptext19 04AA  
                        __ptext36 1258                          __ptext28 11DE  
                        __ptext37 0688                          __ptext29 0E08  
                        __ptext38 0E68                          __ptext39 1208  
                    _SSP1CON1bits 000FC6                      _SSP1CON2bits 000FC5  
                        _high_isr 0008                       ??_doDimStep 0016  
                     _sendDMX$997 0002                  i1getsI2C1@length 0004  
                  ??_decodeButton 00B9                __end_of_initButton 0D36  
                readTestPattern@r 00C1              ??_storeASceneChannel 00C3  
                 ??_EEAckPolling1 00B7                     __size_of_main 0050  
            __end_of_storeAButton 12FA                       _sceneAdress 0D36  
                  buttonsReset@bp 00A4                 WriteI2C1@data_out 00B6  
                        fifoGet@v 00B7                       ??_fifoEmpty 00B5  
                    _SSP1STATbits 000FC7        __end_of_initButtonHardware 1148  
               OpenI2C1@sync_mode 00B6                        _INTCONbits 000FF2  
             __end_ofi1_WriteI2C1 0CC4              i1sceneAdress@channel 0007  
        HDByteReadI2C@ControlByte 00C0                          intlevel1 0000  
                        intlevel2 0000                       _targetScene 0041  
      __end_of_initButtonProtocol 1332                   i1getsI2C1@rdptr 0002  
           __end_ofi1_sceneAdress 0FAA                        _RCSTA2bits 000F71  
               ??_readTestPattern 00C1                     buttonsReset@i 00A3  
                      _OSCCONbits 000FD3         __size_of_readSceneChannel 003A  
    storeASceneChannel@baseAdress 00C7           ??_initFlashButtonMatrix 00C0  
      i1HDByteReadI2C@ControlByte 000C            buttonByteReceived@code 00BE  
     __size_of_buttonByteReceived 008A                       findButton@i 00B8  
                     _SSPCON2bits 000FC5                        i1_ReadI2C1 1208  
               doDimStart@program 00B5            __size_of_HDByteReadI2C 0100  
               ??i1_HDByteReadI2C 000B            i1HDByteReadI2C@HighAdd 0006  
                ??_buttonReceived 00B7                 __CFG_FOSC$INTIO67 000000  
         __size_of_HDByteWriteI2C 00DE  
